((dp0
S'tt2986548'
p1
I1883
sS'tt0054227'
p2
I1124
sS'tt4386684'
p3
I1273
sS'tt0268901'
p4
I1417
sS'tt0268902'
p5
I1396
sS'tt1000155'
p6
I1116
sS'tt4299820'
p7
I755
sS'tt0267318'
p8
I1785
sS'tt1214961'
p9
I1435
sS'tt3971944'
p10
I1211
sS'tt0291740'
p11
I1622
sS'tt0452803'
p12
I1850
sS'tt0382792'
p13
I1331
sS'tt0178392'
p14
I408
sS'tt1437367'
p15
I211
sS'tt0129370'
p16
I547
sS'tt1407978'
p17
I2769
sS'tt1279228'
p18
I2252
sS'tt3696800'
p19
I232
sS'tt0322877'
p20
I699
sS'tt0308793'
p21
I2846
sS'tt0100095'
p22
I133
sS'tt1324059'
p23
I84
sS'tt1418195'
p24
I2599
sS'tt1264880'
p25
I973
sS'tt0255668'
p26
I1484
sS'tt0315394'
p27
I1836
sS'tt0405508'
p28
I34
sS'tt0362055'
p29
I2534
sS'tt0298122'
p30
I2332
sS'tt1772303'
p31
I1774
sS'tt0050322'
p32
I551
sS'tt0232252'
p33
I2680
sS'tt4991660'
p34
I237
sS'tt4772974'
p35
I941
sS'tt0788067'
p36
I2407
sS'tt5760484'
p37
I212
sS'tt1584051'
p38
I922
sS'tt0265902'
p39
I2431
sS'tt0157039'
p40
I2096
sS'tt0378450'
p41
I737
sS'tt2133191'
p42
I1567
sS'tt3019716'
p43
I2688
sS'tt0322902'
p44
I2074
sS'tt1590129'
p45
I217
sS'tt4742102'
p46
I187
sS'tt0259699'
p47
I2164
sS'tt1524567'
p48
I1081
sS'tt1407158'
p49
I1901
sS'tt0359771'
p50
I1003
sS'tt0255713'
p51
I1954
sS'tt0245322'
p52
I2717
sS'tt1524568'
p53
I1012
sS'tt1666631'
p54
I1185
sS'tt4718728'
p55
I1301
sS'tt0155257'
p56
I1960
sS'tt0155256'
p57
I2137
sS'tt0156290'
p58
I511
sS'tt5047160'
p59
I1353
sS'tt4772804'
p60
I906
sS'tt1402507'
p61
I2593
sS'tt1402504'
p62
I1932
sS'tt1922545'
p63
I1996
sS'tt4761964'
p64
I691
sS'tt0214493'
p65
I829
sS'tt0352482'
p66
I1465
sS'tt2585562'
p67
I2006
sS'tt5313726'
p68
I1665
sS'tt0214816'
p69
I1134
sS'tt0238348'
p70
I1735
sS'tt0457655'
p71
I26
sS'tt2351177'
p72
I155
sS'tt0239332'
p73
I2487
sS'tt5137380'
p74
I2426
sS'tt1532567'
p75
I2001
sS'tt0369204'
p76
I2639
sS'tt0355789'
p77
I2437
sS'tt2218988'
p78
I196
sS'tt0389852'
p79
I2362
sS'tt3532062'
p80
I1214
sS'tt1279229'
p81
I2293
sS'tt1908463'
p82
I2749
sS'tt1527050'
p83
I1011
sS'tt4760998'
p84
I1110
sS'tt3265542'
p85
I1270
sS'tt0266757'
p86
I335
sS'tt1392102'
p87
I2732
sS'tt1392100'
p88
I2617
sS'tt5345888'
p89
I1255
sS'tt0022752'
p90
I886
sS'tt1433543'
p91
I1598
sS'tt0256584'
p92
I2148
sS'tt0376127'
p93
I134
sS'tt4249112'
p94
I673
sS'tt2083925'
p95
I996
sS'tt4981966'
p96
I260
sS'tt0356129'
p97
I1005
sS'tt0768708'
p98
I2165
sS'tt3099458'
p99
I2720
sS'tt5951704'
p100
I1176
sS'tt1199437'
p101
I2533
sS'tt0080856'
p102
I624
sS'tt0328810'
p103
I749
sS'tt0234094'
p104
I2398
sS'tt4840668'
p105
I1305
sS'tt4047104'
p106
I2118
sS'tt0066070'
p107
I321
sS'tt2361746'
p108
I563
sS'tt0371602'
p109
I2660
sS'tt1019897'
p110
I1095
sS'tt5565670'
p111
I1202
sS'tt0088331'
p112
I1570
sS'tt0043908'
p113
I526
sS'tt0052560'
p114
I334
sS'tt4251142'
p115
I769
sS'tt5423310'
p116
I2066
sS'tt0231645'
p117
I561
sS'tt0316457'
p118
I1229
sS'tt0243296'
p119
I972
sS'tt0290632'
p120
I2612
sS'tt3281912'
p121
I2730
sS'tt0139065'
p122
I2557
sS'tt0306632'
p123
I2821
sS'tt1416665'
p124
I2694
sS'tt5578722'
p125
I1388
sS'tt0155926'
p126
I1637
sS'tt1404051'
p127
I1944
sS'tt3034728'
p128
I1382
sS'tt3053768'
p129
I2590
sS'tt1389468'
p130
I2596
sS'tt0080982'
p131
I414
sS'tt1821480'
p132
I55
sS'tt0371735'
p133
I311
sS'tt0231880'
p134
I2574
sS'tt0215457'
p135
I698
sS'tt0375611'
p136
I54
sS'tt0330954'
p137
I834
sS'tt0077783'
p138
I392
sS'tt2418248'
p139
I1538
sS'tt3822396'
p140
I252
sS'tt1446180'
p141
I1891
sS'tt0413984'
p142
I1258
sS'tt0186872'
p143
I2224
sS'tt0155698'
p144
I1620
sS'tt0155220'
p145
I2757
sS'tt0046155'
p146
I2505
sS'tt0250579'
p147
I1964
sS'tt0263831'
p148
I2363
sS'tt0316054'
p149
I1182
sS'tt4956378'
p150
I2721
sS'tt0448345'
p151
I1513
sS'tt2130080'
p152
I956
sS'tt0345177'
p153
I552
sS'tt2321321'
p154
I1799
sS'tt5764836'
p155
I158
sS'tt0480732'
p156
I652
sS'tt1286811'
p157
I2050
sS'tt0231267'
p158
I2820
sS'tt1422730'
p159
I754
sS'tt0045576'
p160
I964
sS'tt0106546'
p161
I655
sS'tt2704972'
p162
I1010
sS'tt0973783'
p163
I1635
sS'tt1418253'
p164
I2601
sS'tt1961143'
p165
I630
sS'tt0245852'
p166
I2325
sS'tt1454139'
p167
I1942
sS'tt1401730'
p168
I2567
sS'tt0155889'
p169
I912
sS'tt0262447'
p170
I2235
sS'tt1440195'
p171
I1895
sS'tt1609168'
p172
I2065
sS'tt1416338'
p173
I2684
sS'tt5336778'
p174
I680
sS'tt0155191'
p175
I2153
sS'tt0079938'
p176
I394
sS'tt0187604'
p177
I2419
sS'tt5037436'
p178
I728
sS'tt0086597'
p179
I489
sS'tt1411968'
p180
I2004
sS'tt0263996'
p181
I2344
sS'tt3107818'
p182
I2773
sS'tt0100401'
p183
I464
sS'tt0251151'
p184
I1771
sS'tt0290820'
p185
I358
sS'tt0146266'
p186
I525
sS'tt0833444'
p187
I1697
sS'tt1954432'
p188
I1894
sS'tt1436457'
p189
I2430
sS'tt3681442'
p190
I2181
sS'tt0402362'
p191
I1393
sS'tt0235617'
p192
I2094
sS'tt3336696'
p193
I971
sS'tt0254504'
p194
I2278
sS'tt0246189'
p195
I2326
sS'tt0216175'
p196
I1078
sS'tt0242256'
p197
I1990
sS'tt0216170'
p198
I791
sS'tt0237472'
p199
I1421
sS'tt2327223'
p200
I283
sS'tt2166508'
p201
I228
sS'tt0255676'
p202
I1541
sS'tt0137925'
p203
I2287
sS'tt0255675'
p204
I1548
sS'tt0091717'
p205
I2547
sS'tt0334482'
p206
I1600
sS'tt0379375'
p207
I160
sS'tt0377321'
p208
I2175
sS'tt0267363'
p209
I348
sS'tt0079590'
p210
I416
sS'tt0482389'
p211
I2106
sS'tt5214394'
p212
I194
sS'tt0871012'
p213
I2813
sS'tt1288638'
p214
I286
sS'tt1409073'
p215
I1808
sS'tt4300666'
p216
I784
sS'tt0232063'
p217
I2837
sS'tt1346649'
p218
I2623
sS'tt0232066'
p219
I576
sS'tt3833892'
p220
I2784
sS'tt0249398'
p221
I1930
sS'tt0050665'
p222
I326
sS'tt0085913'
p223
I388
sS'tt0075669'
p224
I313
sS'tt1230165'
p225
I71
sS'tt1399165'
p226
I2586
sS'tt1241195'
p227
I317
sS'tt3740490'
p228
I2776
sS'tt5722268'
p229
I2640
sS'tt5302552'
p230
I627
sS'tt0265695'
p231
I1245
sS'tt0245145'
p232
I2147
sS'tt4313220'
p233
I814
sS'tt0453729'
p234
I287
sS'tt0064244'
p235
I397
sS'tt0307994'
p236
I1956
sS'tt0214558'
p237
I1610
sS'tt4772968'
p238
I692
sS'tt0128985'
p239
I361
sS'tt1008948'
p240
I999
sS'tt1815609'
p241
I958
sS'tt0108118'
p242
I751
sS'tt0064086'
p243
I1319
sS'tt2022522'
p244
I772
sS'tt0092572'
p245
I1096
sS'tt0093578'
p246
I139
sS'tt0319736'
p247
I96
sS'tt2710334'
p248
I2131
sS'tt4668742'
p249
I1702
sS'tt1266583'
p250
I132
sS'tt0253784'
p251
I2455
sS'tt5085140'
p252
I1147
sS'tt0255706'
p253
I1519
sS'tt4678200'
p254
I1209
sS'tt0269617'
p255
I2333
sS'tt0118751'
p256
I246
sS'tt1261047'
p257
I79
sS'tt0305406'
p258
I1847
sS'tt1587426'
p259
I1291
sS'tt0250462'
p260
I2162
sS'tt3332772'
p261
I1764
sS'tt4580794'
p262
I213
sS'tt0241753'
p263
I519
sS'tt3322420'
p264
I66
sS'tt3723864'
p265
I1203
sS'tt4249472'
p266
I865
sS'tt0277748'
p267
I2206
sS'tt0214481'
p268
I1023
sS'tt0277967'
p269
I1835
sS'tt0216971'
p270
I1410
sS'tt0456480'
p271
I986
sS'tt5815346'
p272
I2792
sS'tt0213855'
p273
I2220
sS'tt3169652'
p274
I2810
sS'tt0047438'
p275
I1109
sS'tt0363795'
p276
I1064
sS'tt0028626'
p277
I613
sS'tt0317088'
p278
I981
sS'tt5076822'
p279
I880
sS'tt5509142'
p280
I663
sS'tt0085138'
p281
I2559
sS'tt2597126'
p282
I153
sS'tt3219296'
p283
I1192
sS'tt0086100'
p284
I2841
sS'tt1411713'
p285
I1941
sS'tt5471570'
p286
I2604
sS'tt0137459'
p287
I508
sS'tt5247578'
p288
I625
sS'tt1176187'
p289
I1656
sS'tt0352147'
p290
I1616
sS'tt0369239'
p291
I2563
sS'tt0266962'
p292
I2348
sS'tt1620933'
p293
I92
sS'tt0087697'
p294
I1905
sS'tt0234571'
p295
I2193
sS'tt0158481'
p296
I821
sS'tt1773441'
p297
I2806
sS'tt1545718'
p298
I1082
sS'tt0214935'
p299
I1500
sS'tt0907674'
p300
I105
sS'tt1999819'
p301
I1852
sS'tt4603640'
p302
I1689
sS'tt0155068'
p303
I2036
sS'tt5206784'
p304
I1806
sS'tt0371636'
p305
I1259
sS'tt0215517'
p306
I298
sS'tt6047120'
p307
I1302
sS'tt0215515'
p308
I605
sS'tt0109424'
p309
I38
sS'tt4249058'
p310
I715
sS'tt1354036'
p311
I2615
sS'tt0263623'
p312
I2217
sS'tt5548032'
p313
I202
sS'tt3449292'
p314
I126
sS'tt5523174'
p315
I2134
sS'tt3214218'
p316
I2543
sS'tt0331232'
p317
I1655
sS'tt6117158'
p318
I2723
sS'tt0316930'
p319
I1831
sS'tt5611648'
p320
I257
sS'tt0477857'
p321
I310
sS'tt4448446'
p322
I226
sS'tt0154627'
p323
I2276
sS'tt1587741'
p324
I796
sS'tt1404047'
p325
I1880
sS'tt0111559'
p326
I1094
sS'tt0072783'
p327
I107
sS'tt0072781'
p328
I2645
sS'tt1404048'
p329
I1036
sS'tt3529050'
p330
I1345
sS'tt0215468'
p331
I2103
sS'tt5311724'
p332
I1034
sS'tt0231897'
p333
I703
sS'tt0231890'
p334
I836
sS'tt1414477'
p335
I2676
sS'tt0142385'
p336
I2518
sS'tt0231473'
p337
I1194
sS'tt0251814'
p338
I2301
sS'tt1863292'
p339
I1723
sS'tt0369892'
p340
I2654
sS'tt1675735'
p341
I2226
sS'tt0454876'
p342
I18
sS'tt4197544'
p343
I731
sS'tt5125576'
p344
I1807
sS'tt0155473'
p345
I767
sS'tt3954068'
p346
I1958
sS'tt2210713'
p347
I659
sS'tt0321182'
p348
I1920
sS'tt0236958'
p349
I753
sS'tt0243447'
p350
I2511
sS'tt0245001'
p351
I2516
sS'tt1517561'
p352
I2144
sS'tt2375559'
p353
I262
sS'tt0187333'
p354
I2046
sS'tt0044360'
p355
I2528
sS'tt0237537'
p356
I641
sS'tt0187484'
p357
I2466
sS'tt0231270'
p358
I1708
sS'tt4992106'
p359
I493
sS'tt1418157'
p360
I2655
sS'tt0276824'
p361
I2361
sS'tt0258431'
p362
I1678
sS'tt4032570'
p363
I2775
sS'tt0258436'
p364
I1758
sS'tt0085743'
p365
I102
sS'tt0423470'
p366
I2083
sS'tt0334065'
p367
I2124
sS'tt3122380'
p368
I1793
sS'tt1394321'
p369
I2631
sS'tt0833533'
p370
I612
sS'tt2359810'
p371
I114
sS'tt0357782'
p372
I471
sS'tt3304850'
p373
I1105
sS'tt2180477'
p374
I2143
sS'tt0374887'
p375
I62
sS'tt1587164'
p376
I878
sS'tt5642834'
p377
I1166
sS'tt0262755'
p378
I2254
sS'tt0233554'
p379
I2413
sS'tt0396462'
p380
I1154
sS'tt1409088'
p381
I995
sS'tt4977540'
p382
I2683
sS'tt3668280'
p383
I1621
sS'tt0242629'
p384
I875
sS'tt4735974'
p385
I1071
sS'tt5333612'
p386
I273
sS'tt1401098'
p387
I1215
sS'tt5134478'
p388
I1138
sS'tt0262455'
p389
I2335
sS'tt2999342'
p390
I997
sS'tt0275489'
p391
I572
sS'tt0116749'
p392
I1623
sS'tt0113311'
p393
I282
sS'tt1399021'
p394
I1919
sS'tt0272302'
p395
I1731
sS'tt0255643'
p396
I1381
sS'tt0255641'
p397
I1490
sS'tt0245717'
p398
I2613
sS'tt0248673'
p399
I1509
sS'tt1427283'
p400
I1858
sS'tt1244510'
p401
I2225
sS'tt0316406'
p402
I1789
sS'tt5180164'
p403
I528
sS'tt5297256'
p404
I207
sS'tt0830653'
p405
I2275
sS'tt0267372'
p406
I1893
sS'tt3801314'
p407
I2067
sS'tt0087328'
p408
I1032
sS'tt0213108'
p409
I1190
sS'tt4300696'
p410
I1111
sS'tt0819841'
p411
I2198
sS'tt0071145'
p412
I549
sS'tt0954342'
p413
I2508
sS'tt0454506'
p414
I1303
sS'tt0154900'
p415
I1797
sS'tt0043307'
p416
I470
sS'tt2548094'
p417
I1986
sS'tt0272271'
p418
I1376
sS'tt5152100'
p419
I944
sS'tt0248909'
p420
I1412
sS'tt5312232'
p421
I223
sS'tt0255807'
p422
I2450
sS'tt0222012'
p423
I76
sS'tt0319836'
p424
I651
sS'tt0832902'
p425
I1752
sS'tt1639426'
p426
I78
sS'tt1360139'
p427
I2708
sS'tt0779762'
p428
I2354
sS'tt0157581'
p429
I2130
sS'tt3341582'
p430
I222
sS'tt0282778'
p431
I1362
sS'tt0237260'
p432
I742
sS'tt5565818'
p433
I1293
sS'tt5356596'
p434
I1312
sS'tt1593635'
p435
I696
sS'tt4280824'
p436
I1201
sS'tt4361472'
p437
I1833
sS'tt0262726'
p438
I2384
sS'tt0433416'
p439
I30
sS'tt0262725'
p440
I2414
sS'tt1904833'
p441
I1408
sS'tt1907761'
p442
I174
sS'tt1094576'
p443
I2826
sS'tt1603362'
p444
I2395
sS'tt1547237'
p445
I1929
sS'tt2792440'
p446
I1844
sS'tt0292209'
p447
I1618
sS'tt1437626'
p448
I2358
sS'tt1821700'
p449
I274
sS'tt3269194'
p450
I2073
sS'tt0076254'
p451
I1423
sS'tt1857670'
p452
I1997
sS'tt0304435'
p453
I233
sS'tt3438252'
p454
I636
sS'tt0352314'
p455
I367
sS'tt0362038'
p456
I792
sS'tt0233635'
p457
I2542
sS'tt0353156'
p458
I1457
sS'tt2388817'
p459
I1195
sS'tt4899880'
p460
I2500
sS'tt0070947'
p461
I401
sS'tt0214831'
p462
I736
sS'tt6160932'
p463
I1840
sS'tt0214839'
p464
I2021
sS'tt2078644'
p465
I1547
sS'tt0301231'
p466
I406
sS'tt0292332'
p467
I1489
sS'tt2320238'
p468
I1860
sS'tt1519400'
p469
I939
sS'tt3261022'
p470
I289
sS'tt4169250'
p471
I16
sS'tt0119720'
p472
I430
sS'tt0055444'
p473
I523
sS'tt4957164'
p474
I2663
sS'tt0248201'
p475
I2182
sS'tt0266737'
p476
I1524
sS'tt0269823'
p477
I1579
sS'tt2882328'
p478
I45
sS'tt1437631'
p479
I2406
sS'tt4771706'
p480
I1092
sS'tt0214585'
p481
I199
sS'tt0049041'
p482
I308
sS'tt2937158'
p483
I1707
sS'tt0214909'
p484
I1624
sS'tt0363564'
p485
I1014
sS'tt0499375'
p486
I63
sS'tt0355743'
p487
I1431
sS'tt0355742'
p488
I2399
sS'tt4741412'
p489
I1992
sS'tt0420333'
p490
I1285
sS'tt0420332'
p491
I46
sS'tt0057332'
p492
I1164
sS'tt5478254'
p493
I483
sS'tt0425182'
p494
I1938
sS'tt1591092'
p495
I724
sS'tt0089599'
p496
I332
sS'tt4245432'
p497
I1017
sS'tt0237623'
p498
I1008
sS'tt1562872'
p499
I29
sS'tt3051894'
p500
I851
sS'tt0832466'
p501
I1747
sS'tt0036077'
p502
I581
sS'tt1527140'
p503
I828
sS'tt1527143'
p504
I713
sS'tt0303719'
p505
I1843
sS'tt5341362'
p506
I893
sS'tt4303968'
p507
I993
sS'tt0067925'
p508
I2698
sS'tt5909308'
p509
I104
sS'tt1180583'
p510
I248
sS'tt0244776'
p511
I381
sS'tt1300376'
p512
I2456
sS'tt0067729'
p513
I852
sS'tt1389535'
p514
I2607
sS'tt0234211'
p515
I575
sS'tt0250776'
p516
I2185
sS'tt5269528'
p517
I929
sS'tt0156342'
p518
I887
sS'tt0158074'
p519
I585
sS'tt4272380'
p520
I1039
sS'tt1422763'
p521
I1902
sS'tt4773144'
p522
I1870
sS'tt0153095'
p523
I1240
sS'tt0028786'
p524
I1121
sS'tt0246737'
p525
I1361
sS'tt0390602'
p526
I2327
sS'tt0323414'
p527
I695
sS'tt0231867'
p528
I1080
sS'tt0230622'
p529
I521
sS'tt0230623'
p530
I1481
sS'tt0156986'
p531
I1661
sS'tt0156987'
p532
I711
sS'tt5985026'
p533
I1672
sS'tt0310865'
p534
I1187
sS'tt0111580'
p535
I961
sS'tt0311594'
p536
I2257
sS'tt4434004'
p537
I2
sS'tt0240879'
p538
I382
sS'tt0341478'
p539
I2359
sS'tt0243559'
p540
I2506
sS'tt0046176'
p541
I2051
sS'tt5281680'
p542
I653
sS'tt4312986'
p543
I720
sS'tt0150101'
p544
I982
sS'tt0154120'
p545
I2099
sS'tt0154124'
p546
I2238
sS'tt0053791'
p547
I2562
sS'tt0140448'
p548
I2005
sS'tt2273160'
p549
I1191
sS'tt1542882'
p550
I787
sS'tt0085137'
p551
I1470
sS'tt1986960'
p552
I2053
sS'tt0357829'
p553
I1508
sS'tt2196224'
p554
I1286
sS'tt4955112'
p555
I757
sS'tt0291376'
p556
I294
sS'tt0345622'
p557
I1517
sS'tt0149753'
p558
I936
sS'tt0234563'
p559
I1042
sS'tt5121000'
p560
I100
sS'tt2631186'
p561
I261
sS'tt1346243'
p562
I2794
sS'tt0154026'
p563
I2524
sS'tt0235741'
p564
I1649
sS'tt0235742'
p565
I1961
sS'tt0242839'
p566
I1313
sS'tt0242837'
p567
I1945
sS'tt0390657'
p568
I446
sS'tt2140465'
p569
I43
sS'tt4704768'
p570
I531
sS'tt2014260'
p571
I1299
sS'tt0374897'
p572
I2526
sS'tt5219150'
p573
I2545
sS'tt0155906'
p574
I1424
sS'tt0362070'
p575
I1705
sS'tt5946852'
p576
I205
sS'tt5541812'
p577
I193
sS'tt5245160'
p578
I734
sS'tt0249645'
p579
I1922
sS'tt0237452'
p580
I933
sS'tt2082513'
p581
I1309
sS'tt0364211'
p582
I1568
sS'tt1926313'
p583
I147
sS'tt0238936'
p584
I39
sS'tt0091559'
p585
I1980
sS'tt0454463'
p586
I1227
sS'tt0235636'
p587
I1341
sS'tt0308875'
p588
I1239
sS'tt4290746'
p589
I2081
sS'tt0280554'
p590
I2463
sS'tt2082197'
p591
I28
sS'tt0275497'
p592
I1696
sS'tt1884254'
p593
I1837
sS'tt0258280'
p594
I1612
sS'tt1399030'
p595
I1934
sS'tt0255382'
p596
I2117
sS'tt0305738'
p597
I1574
sS'tt0070530'
p598
I527
sS'tt0268954'
p599
I1559
sS'tt0843328'
p600
I410
sS'tt0315747'
p601
I1890
sS'tt4934950'
p602
I25
sS'tt1662540'
p603
I570
sS'tt2296799'
p604
I239
sS'tt1407940'
p605
I2780
sS'tt0454510'
p606
I1275
sS'tt0133826'
p607
I1336
sS'tt0414834'
p608
I1269
sS'tt2957730'
p609
I2835
sS'tt4805318'
p610
I621
sS'tt1477001'
p611
I2002
sS'tt2786278'
p612
I1498
sS'tt0277162'
p613
I167
sS'tt1206310'
p614
I1776
sS'tt1575507'
p615
I2352
sS'tt0353496'
p616
I1346
sS'tt0248934'
p617
I1625
sS'tt0248933'
p618
I1549
sS'tt4253376'
p619
I1044
sS'tt1365440'
p620
I2606
sS'tt0779772'
p621
I2285
sS'tt4114302'
p622
I341
sS'tt0215037'
p623
I2071
sS'tt2048726'
p624
I1040
sS'tt2497612'
p625
I1249
sS'tt3886682'
p626
I1820
sS'tt2879770'
p627
I1298
sS'tt0100354'
p628
I1533
sS'tt1441312'
p629
I2091
sS'tt5177914'
p630
I183
sS'tt2575290'
p631
I299
sS'tt0112870'
p632
I49
sS'tt0053052'
p633
I644
sS'tt0816424'
p634
I1878
sS'tt0258775'
p635
I1791
sS'tt0232139'
p636
I1737
sS'tt1353033'
p637
I1454
sS'tt1523413'
p638
I908
sS'tt0207956'
p639
I1614
sS'tt0262714'
p640
I614
sS'tt0156082'
p641
I2462
sS'tt0157572'
p642
I586
sS'tt0332559'
p643
I1144
sS'tt1713499'
p644
I516
sS'tt0156089'
p645
I1615
sS'tt0155265'
p646
I1975
sS'tt0216122'
p647
I898
sS'tt3394420'
p648
I2573
sS'tt0116950'
p649
I288
sS'tt0069334'
p650
I1626
sS'tt0989831'
p651
I633
sS'tt0259392'
p652
I2271
sS'tt1523530'
p653
I697
sS'tt4932720'
p654
I1680
sS'tt0156774'
p655
I1646
sS'tt0156779'
p656
I1069
sS'tt0355423'
p657
I1390
sS'tt0459293'
p658
I1328
sS'tt0419992'
p659
I461
sS'tt0382764'
p660
I1841
sS'tt1431299'
p661
I1864
sS'tt0232735'
p662
I838
sS'tt0355626'
p663
I2312
sS'tt0158314'
p664
I2504
sS'tt4306116'
p665
I2479
sS'tt0367214'
p666
I554
sS'tt0056436'
p667
I553
sS'tt2075108'
p668
I812
sS'tt1589968'
p669
I904
sS'tt0371974'
p670
I441
sS'tt5541790'
p671
I776
sS'tt0233270'
p672
I2831
sS'tt3133538'
p673
I1757
sS'tt1402397'
p674
I1872
sS'tt0277780'
p675
I1553
sS'tt1111914'
p676
I1572
sS'tt0142431'
p677
I542
sS'tt5506680'
p678
I2819
sS'tt0363796'
p679
I1035
sS'tt0151511'
p680
I385
sS'tt2409642'
p681
I1101
sS'tt1437628'
p682
I2253
sS'tt0252317'
p683
I1740
sS'tt0076664'
p684
I1218
sS'tt1468288'
p685
I1884
sS'tt0093603'
p686
I58
sS'tt0049072'
p687
I372
sS'tt0049070'
p688
I709
sS'tt0049708'
p689
I719
sS'tt5454506'
p690
I935
sS'tt0214919'
p691
I2191
sS'tt0214915'
p692
I1359
sS'tt4513812'
p693
I360
sS'tt0049707'
p694
I984
sS'tt0155687'
p695
I2389
sS'tt4365506'
p696
I1051
sS'tt1365030'
p697
I2114
sS'tt0215067'
p698
I1590
sS'tt0215066'
p699
I2048
sS'tt0363996'
p700
I702
sS'tt3867974'
p701
I1673
sS'tt0082796'
p702
I346
sS'tt0266659'
p703
I2320
sS'tt0291890'
p704
I1469
sS'tt0151205'
p705
I826
sS'tt0240973'
p706
I2078
sS'tt0316827'
p707
I1168
sS'tt0309432'
p708
I2755
sS'tt0233774'
p709
I1165
sS'tt2094059'
p710
I1830
sS'tt0984075'
p711
I1712
sS'tt4119102'
p712
I822
sS'tt0257461'
p713
I1467
sS'tt0250705'
p714
I2090
sS'tt0363422'
p715
I868
sS'tt0215087'
p716
I2377
sS'tt0392835'
p717
I1163
sS'tt2187090'
p718
I2814
sS'tt1734418'
p719
I2127
sS'tt0312954'
p720
I1290
sS'tt0250759'
p721
I2439
sS'tt0456919'
p722
I1180
sS'tt0106800'
p723
I938
sS'tt2347491'
p724
I1022
sS'tt4054936'
p725
I1762
sS'tt4312730'
p726
I2108
sS'tt0244585'
p727
I365
sS'tt1773426'
p728
I763
sS'tt0430710'
p729
I1429
sS'tt0376589'
p730
I1130
sS'tt0215886'
p731
I1924
sS'tt0257260'
p732
I2445
sS'tt0111596'
p733
I1715
sS'tt1464797'
p734
I2490
sS'tt0250012'
p735
I1418
sS'tt0285614'
p736
I1642
sS'tt2650538'
p737
I2510
sS'tt0104276'
p738
I2546
sS'tt5523594'
p739
I635
sS'tt1836987'
p740
I1953
sS'tt0154157'
p741
I2186
sS'tt3982254'
p742
I989
sS'tt5082662'
p743
I2163
sS'tt1542893'
p744
I782
sS'tt1431118'
p745
I2025
sS'tt0451919'
p746
I331
sS'tt0061378'
p747
I535
sS'tt1573863'
p748
I1645
sS'tt6129358'
p749
I1792
sS'tt0149740'
p750
I840
sS'tt0269724'
p751
I1578
sS'tt1369464'
p752
I2715
sS'tt0187318'
p753
I1977
sS'tt0290563'
p754
I2210
sS'tt1549829'
p755
I1530
sS'tt6158988'
p756
I682
sS'tt2957126'
p757
I610
sS'tt0290567'
p758
I2795
sS'tt0094621'
p759
I2104
sS'tt0265702'
p760
I2736
sS'tt0247907'
p761
I1582
sS'tt5998104'
p762
I208
sS'tt4219250'
p763
I708
sS'tt0250120'
p764
I2527
sS'tt0843326'
p765
I2432
sS'tt2924472'
p766
I190
sS'tt0212051'
p767
I1183
sS'tt4773172'
p768
I1859
sS'tt0155853'
p769
I2330
sS'tt0110222'
p770
I138
sS'tt0078057'
p771
I827
sS'tt0231454'
p772
I2709
sS'tt0323598'
p773
I1783
sS'tt2294475'
p774
I2638
sS'tt5284164'
p775
I688
sS'tt0155859'
p776
I1436
sS'tt0314349'
p777
I1523
sS'tt3203910'
p778
I2171
sS'tt0246982'
p779
I1999
sS'tt0246984'
p780
I2077
sS'tt1427112'
p781
I1962
sS'tt0371982'
p782
I2461
sS'tt4786606'
p783
I270
sS'tt0154324'
p784
I862
sS'tt0279505'
p785
I1405
sS'tt0116763'
p786
I444
sS'tt4930000'
p787
I1310
sS'tt1796580'
p788
I2020
sS'tt0271678'
p789
I1482
sS'tt1422693'
p790
I790
sS'tt4086578'
p791
I1073
sS'tt0290645'
p792
I934
sS'tt0271857'
p793
I1422
sS'tt0299180'
p794
I1838
sS'tt1146349'
p795
I1679
sS'tt0271699'
p796
I1394
sS'tt0242519'
p797
I47
sS'tt5857968'
p798
I255
sS'tt0290414'
p799
I1768
sS'tt0271694'
p800
I1447
sS'tt0065417'
p801
I778
sS'tt4471488'
p802
I1605
sS'tt0232037'
p803
I2572
sS'tt0254394'
p804
I1461
sS'tt0454523'
p805
I1224
sS'tt4771774'
p806
I900
sS'tt0154927'
p807
I2010
sS'tt0213465'
p808
I2248
sS'tt4110972'
p809
I1584
sS'tt2085746'
p810
I1284
sS'tt4900716'
p811
I40
sS'tt5872120'
p812
I2839
sS'tt0054005'
p813
I980
sS'tt0278915'
p814
I2410
sS'tt3323920'
p815
I1630
sS'tt0887764'
p816
I1226
sS'tt0255289'
p817
I320
sS'tt0887769'
p818
I374
sS'tt0245177'
p819
I2661
sS'tt0758438'
p820
I609
sS'tt0213028'
p821
I1146
sS'tt2048718'
p822
I1070
sS'tt0237089'
p823
I671
sS'tt0779745'
p824
I2383
sS'tt4635372'
p825
I36
sS'tt0779743'
p826
I2391
sS'tt0155408'
p827
I577
sS'tt0338490'
p828
I370
sS'tt0368400'
p829
I2035
sS'tt0482800'
p830
I1322
sS'tt2951534'
p831
I2830
sS'tt0267280'
p832
I1650
sS'tt0299747'
p833
I747
sS'tt0353824'
p834
I1561
sS'tt0154817'
p835
I1694
sS'tt5040904'
p836
I185
sS'tt0318416'
p837
I1216
sS'tt0119385'
p838
I1973
sS'tt2777694'
p839
I2598
sS'tt0155217'
p840
I1129
sS'tt0292220'
p841
I1428
sS'tt0347304'
p842
I4
sS'tt0333892'
p843
I1460
sS'tt0242885'
p844
I1863
sS'tt4992094'
p845
I2744
sS'tt3607198'
p846
I324
sS'tt3767372'
p847
I53
sS'tt0258946'
p848
I1782
sS'tt4489078'
p849
I761
sS'tt2922382'
p850
I1631
sS'tt0282629'
p851
I1602
sS'tt0233185'
p852
I2436
sS'tt0076277'
p853
I1512
sS'tt4944592'
p854
I244
sS'tt1943756'
p855
I2194
sS'tt1815726'
p856
I1653
sS'tt0383177'
p857
I634
sS'tt2542406'
p858
I1995
sS'tt0262502'
p859
I2417
sS'tt0156160'
p860
I472
sS'tt0250471'
p861
I2579
sS'tt0156168'
p862
I1629
sS'tt5017192'
p863
I368
sS'tt0388389'
p864
I569
sS'tt0256632'
p865
I2302
sS'tt0156782'
p866
I1074
sS'tt1459836'
p867
I1943
sS'tt0262361'
p868
I2441
sS'tt1459833'
p869
I1911
sS'tt2187248'
p870
I2043
sS'tt0232960'
p871
I345
sS'tt2181831'
p872
I64
sS'tt0155329'
p873
I2030
sS'tt2193364'
p874
I1238
sS'tt4718656'
p875
I683
sS'tt1399105'
p876
I2677
sS'tt0268615'
p877
I2540
sS'tt0067252'
p878
I1001
sS'tt1437619'
p879
I2393
sS'tt0377643'
p880
I1443
sS'tt1560171'
p881
I1778
sS'tt1437615'
p882
I2310
sS'tt2317337'
p883
I93
sS'tt0356982'
p884
I135
sS'tt1327035'
p885
I69
sS'tt4946192'
p886
I2342
sS'tt0355761'
p887
I1511
sS'tt2335908'
p888
I518
sS'tt2347798'
p889
I2544
sS'tt0366840'
p890
I2475
sS'tt1519357'
p891
I957
sS'tt0155032'
p892
I2219
sS'tt0215079'
p893
I1798
sS'tt1620501'
p894
I1235
sS'tt0063023'
p895
I628
sS'tt0215276'
p896
I1339
sS'tt0266886'
p897
I2366
sS'tt0051792'
p898
I808
sS'tt0214671'
p899
I1588
sS'tt1589973'
p900
I930
sS'tt2640640'
p901
I994
sS'tt0261037'
p902
I2577
sS'tt0363433'
p903
I907
sS'tt0445283'
p904
I2070
sS'tt0261033'
p905
I2227
sS'tt2915076'
p906
I2666
sS'tt0048537'
p907
I1952
sS'tt0048536'
p908
I707
sS'tt0061963'
p909
I524
sS'tt2924844'
p910
I2829
sS'tt0460394'
p911
I2468
sS'tt0246251'
p912
I2429
sS'tt1219307'
p913
I1682
sS'tt5082014'
p914
I200
sS'tt0072777'
p915
I314
sS'tt0268446'
p916
I225
sS'tt1019960'
p917
I618
sS'tt3479530'
p918
I1049
sS'tt1019962'
p919
I818
sS'tt4874006'
p920
I1730
sS'tt0947074'
p921
I1761
sS'tt0058497'
p922
I686
sS'tt5314520'
p923
I1693
sS'tt0246262'
p924
I2239
sS'tt0107767'
p925
I804
sS'tt0375093'
p926
I646
sS'tt0140399'
p927
I344
sS'tt0341455'
p928
I330
sS'tt1369559'
p929
I2635
sS'tt0150120'
p930
I1151
sS'tt1621830'
p931
I151
sS'tt1422610'
p932
I1914
sS'tt0309974'
p933
I2146
sS'tt1372719'
p934
I1179
sS'tt5716302'
p935
I1053
sS'tt0246665'
p936
I1728
sS'tt0077451'
p937
I293
sS'tt0451702'
p938
I1816
sS'tt5219770'
p939
I442
sS'tt5805252'
p940
I97
sS'tt0323766'
p941
I2630
sS'tt4338242'
p942
I816
sS'tt0215307'
p943
I1504
sS'tt5641300'
p944
I1683
sS'tt1977865'
p945
I1824
sS'tt5713232'
p946
I21
sS'tt0483180'
p947
I1398
sS'tt0290772'
p948
I2187
sS'tt0216331'
p949
I1987
sS'tt2063745'
p950
I309
sS'tt2486100'
p951
I1158
sS'tt4311072'
p952
I517
sS'tt0085776'
p953
I409
sS'tt4679210'
p954
I206
sS'tt0247912'
p955
I1242
sS'tt1394310'
p956
I1123
sS'tt4868958'
p957
I157
sS'tt0275544'
p958
I1432
sS'tt0233148'
p959
I2797
sS'tt0274012'
p960
I1453
sS'tt0375878'
p961
I2059
sS'tt0107166'
p962
I412
sS'tt4992114'
p963
I1819
sS'tt0455829'
p964
I2061
sS'tt0251847'
p965
I2416
sS'tt0214841'
p966
I459
sS'tt0092557'
p967
I1474
sS'tt0237138'
p968
I1399
sS'tt0308450'
p969
I1016
sS'tt0379370'
p970
I80
sS'tt0216025'
p971
I739
sS'tt4203824'
p972
I1718
sS'tt1954470'
p973
I41
sS'tt5286444'
p974
I1
sS'tt0324391'
p975
I675
sS'tt1409078'
p976
I947
sS'tt3103410'
p977
I2724
sS'tt0454441'
p978
I1174
sS'tt0092956'
p979
I740
sS'tt0153476'
p980
I727
sS'tt0075747'
p981
I407
sS'tt4114758'
p982
I1288
sS'tt1418205'
p983
I2672
sS'tt2379514'
p984
I2364
sS'tt0213481'
p985
I1472
sS'tt1573878'
p986
I1644
sS'tt0245412'
p987
I2150
sS'tt1286728'
p988
I2022
sS'tt0053104'
p989
I853
sS'tt0232640'
p990
I2569
sS'tt5013868'
p991
I799
sS'tt2258337'
p992
I89
sS'tt0149774'
p993
I677
sS'tt0091598'
p994
I393
sS'tt0452878'
p995
I574
sS'tt5752458'
p996
I427
sS'tt3198468'
p997
I1577
sS'tt0246882'
p998
I2008
sS'tt0145851'
p999
I1157
sS'tt1418142'
p1000
I2678
sS'tt0251067'
p1001
I1773
sS'tt2917334'
p1002
I2100
sS'tt2327485'
p1003
I2548
sS'tt3811914'
p1004
I1090
sS'tt0364647'
p1005
I1991
sS'tt6123210'
p1006
I2741
sS'tt1305889'
p1007
I1569
sS'tt0054073'
p1008
I805
sS'tt0256406'
p1009
I2282
sS'tt0867145'
p1010
I1392
sS'tt4991384'
p1011
I250
sS'tt3651028'
p1012
I1660
sS'tt0411131'
p1013
I2205
sS'tt2245544'
p1014
I1181
sS'tt4738774'
p1015
I161
sS'tt0237094'
p1016
I1573
sS'tt1409103'
p1017
I952
sS'tt0249336'
p1018
I2283
sS'tt1851988'
p1019
I2089
sS'tt0152258'
p1020
I924
sS'tt0345674'
p1021
I1499
sS'tt0280398'
p1022
I606
sS'tt0237254'
p1023
I748
sS'tt2391492'
p1024
I1704
sS'tt1279239'
p1025
I2340
sS'tt0306098'
p1026
I2451
sS'tt5271442'
p1027
I276
sS'tt2180513'
p1028
I181
sS'tt0041123'
p1029
I490
sS'tt0245748'
p1030
I2670
sS'tt0333150'
p1031
I2353
sS'tt2012576'
p1032
I1263
sS'tt0363994'
p1033
I2799
sS'tt0178186'
p1034
I338
sS'tt0245747'
p1035
I2781
sS'tt0314366'
p1036
I1440
sS'tt4213178'
p1037
I664
sS'tt4577388'
p1038
I2550
sS'tt4270888'
p1039
I1755
sS'tt2181931'
p1040
I103
sS'tt0382383'
p1041
I131
sS'tt1234607'
p1042
I1274
sS'tt0347332'
p1043
I108
sS'tt0232878'
p1044
I2690
sS'tt4313356'
p1045
I794
sS'tt0308146'
p1046
I2758
sS'tt0055508'
p1047
I806
sS'tt0155886'
p1048
I2136
sS'tt3466866'
p1049
I2481
sS'tt0371746'
p1050
I281
sS'tt0214441'
p1051
I1700
sS'tt0082314'
p1052
I437
sS'tt1431723'
p1053
I2221
sS'tt0082318'
p1054
I1557
sS'tt1431724'
p1055
I2411
sS'tt2429144'
p1056
I2517
sS'tt1792589'
p1057
I1189
sS'tt0246432'
p1058
I1478
sS'tt4846952'
p1059
I1196
sS'tt0232753'
p1060
I2616
sS'tt4373502'
p1061
I2681
sS'tt1459824'
p1062
I1904
sS'tt0085178'
p1063
I215
sS'tt1475345'
p1064
I2085
sS'tt3095238'
p1065
I295
sS'tt1014672'
p1066
I347
sS'tt1553060'
p1067
I1230
sS'tt0155334'
p1068
I1415
sS'tt0292490'
p1069
I23
sS'tt0137361'
p1070
I435
sS'tt1920854'
p1071
I631
sS'tt0399254'
p1072
I2552
sS'tt3463588'
p1073
I1483
sS'tt5341550'
p1074
I2565
sS'tt0109206'
p1075
I284
sS'tt0248319'
p1076
I2119
sS'tt0871510'
p1077
I72
sS'tt0248317'
p1078
I1486
sS'tt4112208'
p1079
I1963
sS'tt1344112'
p1080
I2566
sS'tt0105271'
p1081
I220
sS'tt1590080'
p1082
I911
sS'tt0352743'
p1083
I2262
sS'tt2377938'
p1084
I116
sS'tt1365488'
p1085
I2689
sS'tt4925504'
p1086
I2710
sS'tt0156444'
p1087
I1947
sS'tt0281040'
p1088
I2250
sS'tt0364615'
p1089
I842
sS'tt2624202'
p1090
I959
sS'tt4430136'
p1091
I106
sS'tt0355998'
p1092
I2304
sS'tt5086104'
p1093
I169
sS'tt0095872'
p1094
I1535
sS'tt0352986'
p1095
I1581
sS'tt0260737'
p1096
I2733
sS'tt0479751'
p1097
I297
sS'tt1501298'
p1098
I1971
sS'tt0055724'
p1099
I849
sS'tt2529198'
p1100
I704
sS'tt0109117'
p1101
I33
sS'tt5097012'
p1102
I2291
sS'tt2476214'
p1103
I1433
sS'tt1784354'
p1104
I1056
sS'tt0214842'
p1105
I2643
sS'tt5039054'
p1106
I269
sS'tt3569782'
p1107
I1974
sS'tt4358344'
p1108
I371
sS'tt5062472'
p1109
I166
sS'tt0234225'
p1110
I1317
sS'tt5544430'
p1111
I2786
sS'tt2501092'
p1112
I950
sS'tt0047215'
p1113
I1108
sS'tt0424474'
p1114
I1148
sS'tt5600714'
p1115
I67
sS'tt0375887'
p1116
I2039
sS'tt0375880'
p1117
I2111
sS'tt4271820'
p1118
I1640
sS'tt5032564'
p1119
I364
sS'tt0262824'
p1120
I2255
sS'tt4553434'
p1121
I1308
sS'tt0066758'
p1122
I305
sS'tt1370410'
p1123
I2608
sS'tt4277556'
p1124
I694
sS'tt1945039'
p1125
I1448
sS'tt2175672'
p1126
I1576
sS'tt0306066'
p1127
I1086
sS'tt0353643'
p1128
I1613
sS'tt1707233'
p1129
I1276
sS'tt4459154'
p1130
I501
sS'tt2055653'
p1131
I1265
sS'tt0230321'
p1132
I1455
sS'tt2232428'
p1133
I1208
sS'tt1583256'
p1134
I2471
sS'tt0274314'
p1135
I2033
sS'tt2321421'
p1136
I210
sS'tt0154215'
p1137
I2815
sS'tt2355603'
p1138
I2743
sS'tt3728380'
p1139
I2816
sS'tt0200087'
p1140
I128
sS'tt0215336'
p1141
I1350
sS'tt3882828'
p1142
I1695
sS'tt0260168'
p1143
I2000
sS'tt0390485'
p1144
I2321
sS'tt2198644'
p1145
I184
sS'tt0186956'
p1146
I1603
sS'tt1401126'
p1147
I1280
sS'tt0265723'
p1148
I1910
sS'tt0083790'
p1149
I439
sS'tt2943914'
p1150
I1969
sS'tt0265495'
p1151
I2351
sS'tt4981664'
p1152
I1668
sS'tt0061753'
p1153
I815
sS'tt0390416'
p1154
I2343
sS'tt1587127'
p1155
I909
sS'tt0357905'
p1156
I2149
sS'tt0165972'
p1157
I573
sS'tt0154922'
p1158
I2305
sS'tt1435554'
p1159
I1936
sS'tt1538323'
p1160
I1113
sS'tt0271648'
p1161
I1575
sS'tt0079386'
p1162
I476
sS'tt0249836'
p1163
I780
sS'tt1248983'
p1164
I2013
sS'tt5285050'
p1165
I2116
sS'tt0374117'
p1166
I436
sS'tt0892113'
p1167
I1287
sS'tt0422320'
p1168
I2088
sS'tt5513098'
p1169
I325
sS'tt0290326'
p1170
I120
sS'tt0079388'
p1171
I2401
sS'tt0269922'
p1172
I2317
sS'tt0243756'
p1173
I1391
sS'tt0264528'
p1174
I2580
sS'tt0260868'
p1175
I2423
sS'tt1753696'
p1176
I1885
sS'tt0092924'
p1177
I1327
sS'tt0085896'
p1178
I383
sS'tt0249059'
p1179
I1495
sS'tt4300302'
p1180
I1065
sS'tt0308842'
p1181
I2785
sS'tt1359433'
p1182
I1516
sS'tt1095421'
p1183
I389
sS'tt0078381'
p1184
I1378
sS'tt4806232'
p1185
I2011
sS'tt0271459'
p1186
I1507
sS'tt4691166'
p1187
I192
sS'tt3862704'
p1188
I2668
sS'tt1719663'
p1189
I1897
sS'tt0155492'
p1190
I2355
sS'tt2511716'
p1191
I1772
sS'tt0137958'
p1192
I2515
sS'tt4257084'
p1193
I1061
sS'tt1240521'
p1194
I2482
sS'tt0150683'
p1195
I433
sS'tt1400520'
p1196
I843
sS'tt3447364'
p1197
I65
sS'tt2934644'
p1198
I661
sS'tt0259709'
p1199
I1641
sS'tt0232264'
p1200
I1748
sS'tt3043252'
p1201
I5
sS'tt0454543'
p1202
I1170
sS'tt4658770'
p1203
I149
sS'tt0139859'
p1204
I2167
sS'tt0154944'
p1205
I2019
sS'tt0154822'
p1206
I2069
sS'tt0154942'
p1207
I491
sS'tt3341638'
p1208
I1684
sS'tt0116630'
p1209
I327
sS'tt5159734'
p1210
I2624
sS'tt0187194'
p1211
I2290
sS'tt2825840'
p1212
I2538
sS'tt1754920'
p1213
I560
sS'tt5433442'
p1214
I2621
sS'tt0488414'
p1215
I74
sS'tt1228751'
p1216
I1795
sS'tt0248128'
p1217
I2084
sS'tt0232563'
p1218
I741
sS'tt0302952'
p1219
I1169
sS'tt5133796'
p1220
I848
sS'tt0055882'
p1221
I758
sS'tt0248126'
p1222
I3
sS'tt0257443'
p1223
I2371
sS'tt0779727'
p1224
I2397
sS'tt1471247'
p1225
I285
sS'tt1253578'
p1226
I654
sS'tt1830802'
p1227
I214
sS'tt0166008'
p1228
I473
sS'tt2085783'
p1229
I1721
sS'tt0257441'
p1230
I2256
sS'tt0249365'
p1231
I1918
sS'tt0259631'
p1232
I2281
sS'tt1954648'
p1233
I1811
sS'tt0232168'
p1234
I729
sS'tt0320340'
p1235
I2350
sS'tt0318658'
p1236
I2442
sS'tt0267730'
p1237
I918
sS'tt4881362'
p1238
I2650
sS'tt3208484'
p1239
I1729
sS'tt1579530'
p1240
I2365
sS'tt4920960'
p1241
I1365
sS'tt0134580'
p1242
I1057
sS'tt2022353'
p1243
I1887
sS'tt0176313'
p1244
I1262
sS'tt0199642'
p1245
I1356
sS'tt0049393'
p1246
I1000
sS'tt1920913'
p1247
I1607
sS'tt2717168'
p1248
I1488
sS'tt0353591'
p1249
I1563
sS'tt0246003'
p1250
I2249
sS'tt0986264'
p1251
I31
sS'tt0325507'
p1252
I1662
sS'tt1841542'
p1253
I218
sS'tt0248546'
p1254
I2072
sS'tt0248547'
p1255
I2246
sS'tt0308158'
p1256
I496
sS'tt0314428'
p1257
I2115
sS'tt2387627'
p1258
I1232
sS'tt1805263'
p1259
I247
sS'tt0271638'
p1260
I1471
sS'tt1851841'
p1261
I1756
sS'tt1431737'
p1262
I2294
sS'tt0765443'
p1263
I280
sS'tt0214478'
p1264
I1458
sS'tt1045898'
p1265
I2161
sS'tt0213906'
p1266
I1437
sS'tt2271427'
p1267
I1926
sS'tt0353975'
p1268
I1363
sS'tt3368378'
p1269
I1784
sS'tt0355169'
p1270
I195
sS'tt0051343'
p1271
I978
sS'tt0233962'
p1272
I2739
sS'tt1437622'
p1273
I2215
sS'tt2438106'
p1274
I1826
sS'tt6040012'
p1275
I11
sS'tt0367828'
p1276
I2774
sS'tt2356180'
p1277
I61
sS'tt5819280'
p1278
I1989
sS'tt0187052'
p1279
I2200
sS'tt3501994'
p1280
I322
sS'tt4771744'
p1281
I759
sS'tt0251999'
p1282
I2273
sS'tt0273760'
p1283
I2602
sS'tt0352732'
p1284
I1419
sS'tt0259452'
p1285
I2023
sS'tt0255777'
p1286
I1881
sS'tt0259454'
p1287
I2314
sS'tt0186957'
p1288
I2337
sS'tt2877108'
p1289
I1970
sS'tt1611223'
p1290
I1277
sS'tt0317786'
p1291
I1868
sS'tt0158212'
p1292
I520
sS'tt3817950'
p1293
I1674
sS'tt3775070'
p1294
I607
sS'tt0155010'
p1295
I1520
sS'tt0252196'
p1296
I2240
sS'tt4245478'
p1297
I949
sS'tt2338151'
p1298
I7
sS'tt5929890'
p1299
I1204
sS'tt2830226'
p1300
I1931
sS'tt2995838'
p1301
I2771
sS'tt5569468'
p1302
I1228
sS'tt1946280'
p1303
I431
sS'tt0234329'
p1304
I1385
sS'tt0234328'
p1305
I2501
sS'tt0214875'
p1306
I1477
sS'tt0214657'
p1307
I1544
sS'tt4047112'
p1308
I2142
sS'tt0386650'
p1309
I2184
sS'tt0049643'
p1310
I1055
sS'tt0306121'
p1311
I1865
sS'tt5310090'
p1312
I50
sS'tt0363415'
p1313
I876
sS'tt5889406'
p1314
I243
sS'tt2624852'
p1315
I568
sS'tt0497534'
p1316
I1657
sS'tt4430212'
p1317
I35
sS'tt0089646'
p1318
I2180
sS'tt3919008'
p1319
I1688
sS'tt1416733'
p1320
I2827
sS'tt4975874'
p1321
I2691
sS'tt0214896'
p1322
I915
sS'tt0080435'
p1323
I587
sS'tt5133300'
p1324
I965
sS'tt3668162'
p1325
I201
sS'tt0309289'
p1326
I2782
sS'tt0073652'
p1327
I1886
sS'tt0231824'
p1328
I858
sS'tt0096827'
p1329
I2028
sS'tt4613670'
p1330
I2243
sS'tt1019940'
p1331
I762
sS'tt1817715'
p1332
I1874
sS'tt0048609'
p1333
I801
sS'tt0309778'
p1334
I835
sS'tt0231455'
p1335
I2850
sS'tt0354163'
p1336
I1536
sS'tt0231135'
p1337
I2682
sS'tt5899800'
p1338
I591
sS'tt0258909'
p1339
I1968
sS'tt0380366'
p1340
I1289
sS'tt0047990'
p1341
I556
sS'tt4127096'
p1342
I1254
sS'tt0420517'
p1343
I1321
sS'tt0281567'
p1344
I1515
sS'tt0095936'
p1345
I304
sS'tt0088684'
p1346
I2549
sS'tt0313312'
p1347
I2801
sS'tt0281099'
p1348
I2195
sS'tt0262542'
p1349
I2279
sS'tt0080322'
p1350
I545
sS'tt0254247'
p1351
I1604
sS'tt0314362'
p1352
I1848
sS'tt6169798'
p1353
I2605
sS'tt0350806'
p1354
I2424
sS'tt1010048'
p1355
I17
sS'tt0944961'
p1356
I2578
sS'tt5784350'
p1357
I1103
sS'tt4959358'
p1358
I1043
sS'tt0265730'
p1359
I2015
sS'tt5934420'
p1360
I2498
sS'tt0068257'
p1361
I319
sS'tt2072167'
p1362
I2176
sS'tt1794825'
p1363
I2665
sS'tt2959626'
p1364
I2832
sS'tt0396962'
p1365
I1717
sS'tt0403705'
p1366
I2742
sS'tt0235094'
p1367
I604
sS'tt0403709'
p1368
I2779
sS'tt4773122'
p1369
I1037
sS'tt0196069'
p1370
I119
sS'tt0320100'
p1371
I538
sS'tt4909506'
p1372
I2611
sS'tt0375865'
p1373
I2497
sS'tt1587138'
p1374
I860
sS'tt0449994'
p1375
I44
sS'tt0305819'
p1376
I1595
sS'tt3006508'
p1377
I2847
sS'tt3495030'
p1378
I115
sS'tt5714802'
p1379
I399
sS'tt0249047'
p1380
I1344
sS'tt0454314'
p1381
I482
sS'tt0357283'
p1382
I1220
sS'tt0216019'
p1383
I448
sS'tt0149883'
p1384
I667
sS'tt3521084'
p1385
I227
sS'tt5465472'
p1386
I640
sS'tt0088986'
p1387
I543
sS'tt0139157'
p1388
I458
sS'tt0263398'
p1389
I2264
sS'tt0073391'
p1390
I424
sS'tt0271422'
p1391
I1413
sS'tt1686852'
p1392
I1907
sS'tt0271557'
p1393
I1531
sS'tt1686850'
p1394
I1933
sS'tt0308546'
p1395
I1178
sS'tt4949324'
p1396
I550
sS'tt0290421'
p1397
I668
sS'tt1955036'
p1398
I487
sS'tt1121960'
p1399
I789
sS'tt1723004'
p1400
I1463
sS'tt3031896'
p1401
I307
sS'tt0237309'
p1402
I1426
sS'tt1416782'
p1403
I2692
sS'tt4851630'
p1404
I189
sS'tt0295599'
p1405
I1725
sS'tt4123886'
p1406
I1822
sS'tt0070449'
p1407
I1401
sS'tt0245694'
p1408
I2718
sS'tt0258152'
p1409
I2449
sS'tt0246098'
p1410
I2699
sS'tt0824316'
p1411
I380
sS'tt0231515'
p1412
I2651
sS'tt2957912'
p1413
I2767
sS'tt0054059'
p1414
I1261
sS'tt0321079'
p1415
I684
sS'tt0232572'
p1416
I2669
sS'tt1807022'
p1417
I2725
sS'tt0315897'
p1418
I1212
sS'tt0419887'
p1419
I279
sS'tt4670590'
p1420
I1427
sS'tt3737442'
p1421
I571
sS'tt4833824'
p1422
I2653
sS'tt1189030'
p1423
I616
sS'tt0259605'
p1424
I1633
sS'tt0177490'
p1425
I509
sS'tt3171844'
p1426
I2809
sS'tt0060742'
p1427
I658
sS'tt0157316'
p1428
I419
sS'tt0246930'
p1429
I1338
sS'tt0142066'
p1430
I2541
sS'tt6002986'
p1431
I600
sS'tt0084840'
p1432
I445
sS'tt5157836'
p1433
I582
sS'tt0255470'
p1434
I2386
sS'tt1280558'
p1435
I24
sS'tt1399073'
p1436
I2707
sS'tt2613458'
p1437
I415
sS'tt1579708'
p1438
I2208
sS'tt3567322'
p1439
I846
sS'tt3004588'
p1440
I2805
sS'tt3426284'
p1441
I2154
sS'tt0368678'
p1442
I1087
sS'tt0292166'
p1443
I1386
sS'tt0254967'
p1444
I2311
sS'tt2855648'
p1445
I117
sS'tt1647450'
p1446
I1084
sS'tt0230271'
p1447
I2844
sS'tt0292161'
p1448
I1534
sS'tt0266479'
p1449
I2448
sS'tt0050758'
p1450
I339
sS'tt1534458'
p1451
I871
sS'tt0156930'
p1452
I1770
sS'tt1416696'
p1453
I2763
sS'tt2511464'
p1454
I1802
sS'tt1417299'
p1455
I2063
sS'tt5177824'
p1456
I2245
sS'tt0156130'
p1457
I1445
sS'tt0307995'
p1458
I1205
sS'tt0304469'
p1459
I1842
sS'tt5760590'
p1460
I2787
sS'tt1379228'
p1461
I2079
sS'tt0173042'
p1462
I2817
sS'tt4772986'
p1463
I888
sS'tt0155319'
p1464
I2034
sS'tt5321154'
p1465
I643
sS'tt4293668'
p1466
I186
sS'tt1935109'
p1467
I623
sS'tt0250213'
p1468
I2230
sS'tt5532888'
p1469
I1186
sS'tt0986329'
p1470
I2685
sS'tt0083248'
p1471
I2521
sS'tt5098128'
p1472
I263
sS'tt0214799'
p1473
I1556
sS'tt0056537'
p1474
I1033
sS'tt5862032'
p1475
I176
sS'tt5118514'
p1476
I1137
sS'tt0928194'
p1477
I1609
sS'tt0283005'
p1478
I593
sS'tt0268881'
p1479
I1493
sS'tt0268882'
p1480
I1587
sS'tt1102308'
p1481
I1468
sS'tt0266077'
p1482
I2222
sS'tt0313495'
p1483
I411
sS'tt0088907'
p1484
I1420
sS'tt0187379'
p1485
I2453
sS'tt0156098'
p1486
I1374
sS'tt4271934'
p1487
I811
sS'tt0881366'
p1488
I2679
sS'tt3099354'
p1489
I2766
sS'tt5076748'
p1490
I903
sS'tt0156666'
p1491
I2133
sS'tt5350584'
p1492
I2503
sS'tt0205727'
p1493
I1395
sS'tt0155003'
p1494
I2159
sS'tt0214082'
p1495
I1160
sS'tt0102636'
p1496
I362
sS'tt0291855'
p1497
I197
sS'tt0215225'
p1498
I629
sS'tt1997455'
p1499
I2166
sS'tt0310102'
p1500
I2659
sS'tt4313426'
p1501
I793
sS'tt0355372'
p1502
I2428
sS'tt0214863'
p1503
I1367
sS'tt3524290'
p1504
I2138
sS'tt0363880'
p1505
I642
sS'tt0089413'
p1506
I354
sS'tt0363884'
p1507
I885
sS'tt5475244'
p1508
I637
sS'tt0261822'
p1509
I2346
sS'tt2214674'
p1510
I2496
sS'tt0098999'
p1511
I146
sS'tt4245510'
p1512
I969
sS'tt0262803'
p1513
I2300
sS'tt0262802'
p1514
I2315
sS'tt4260644'
p1515
I2644
sS'tt0109394'
p1516
I966
sS'tt3487404'
p1517
I1251
sS'tt2511784'
p1518
I819
sS'tt0102701'
p1519
I426
sS'tt3506970'
p1520
I1545
sS'tt0109555'
p1521
I124
sS'tt0240481'
p1522
I2126
sS'tt0375066'
p1523
I363
sS'tt0247654'
p1524
I2537
sS'tt0151116'
p1525
I874
sS'tt0285650'
p1526
I2522
sS'tt0154193'
p1527
I2440
sS'tt0375997'
p1528
I2183
sS'tt0317570'
p1529
I2512
sS'tt1966497'
p1530
I1892
sS'tt3729924'
p1531
I468
sS'tt0157882'
p1532
I420
sS'tt0317775'
p1533
I1349
sS'tt0086230'
p1534
I333
sS'tt0086231'
p1535
I1368
sS'tt0052046'
p1536
I1031
sS'tt0984036'
p1537
I1701
sS'tt4897890'
p1538
I2778
sS'tt0300575'
p1539
I494
sS'tt0888045'
p1540
I1846
sS'tt4935836'
p1541
I768
sS'tt1328620'
p1542
I1256
sS'tt0471571'
p1543
I265
sS'tt0242572'
p1544
I2173
sS'tt5311546'
p1545
I221
sS'tt0265747'
p1546
I2704
sS'tt2199711'
p1547
I95
sS'tt0045693'
p1548
I404
sS'tt3693936'
p1549
I432
sS'tt0235160'
p1550
I1554
sS'tt4839000'
p1551
I479
sS'tt0215911'
p1552
I182
sS'tt0155763'
p1553
I1636
sS'tt5343960'
p1554
I2803
sS'tt0403713'
p1555
I1810
sS'tt4817434'
p1556
I968
sS'tt0263969'
p1557
I2788
sS'tt0307192'
p1558
I2418
sS'tt0214485'
p1559
I1348
sS'tt0149934'
p1560
I883
sS'tt3973410'
p1561
I253
sS'tt0140348'
p1562
I1979
sS'tt1034053'
p1563
I2042
sS'tt0497611'
p1564
I539
sS'tt0078724'
p1565
I1775
sS'tt5201164'
p1566
I2745
sS'tt3495026'
p1567
I12
sS'tt0249034'
p1568
I2388
sS'tt0284456'
p1569
I438
sS'tt0456144'
p1570
I91
sS'tt5182526'
p1571
I1370
sS'tt0235683'
p1572
I1466
sS'tt0454494'
p1573
I1200
sS'tt5134362'
p1574
I770
sS'tt0213512'
p1575
I1485
sS'tt3711164'
p1576
I2060
sS'tt2379542'
p1577
I2761
sS'tt2057441'
p1578
I1323
sS'tt4934506'
p1579
I1175
sS'tt4136714'
p1580
I601
sS'tt0155967'
p1581
I1397
sS'tt0274114'
p1582
I1540
sS'tt4429128'
p1583
I1981
sS'tt4654964'
p1584
I1759
sS'tt2393296'
p1585
I2177
sS'tt0155969'
p1586
I1389
sS'tt0237686'
p1587
I656
sS'tt0249781'
p1588
I1898
sS'tt0237682'
p1589
I1383
sS'tt0049757'
p1590
I1126
sS'tt0259724'
p1591
I2409
sS'tt1418112'
p1592
I2634
sS'tt1121975'
p1593
I1414
sS'tt0290450'
p1594
I2603
sS'tt5960464'
p1595
I278
sS'tt4115752'
p1596
I152
sS'tt0311607'
p1597
I1558
sS'tt3539342'
p1598
I1703
sS'tt0360399'
p1599
I456
sS'tt0337578'
p1600
I162
sS'tt0150992'
p1601
I109
sS'tt0054737'
p1602
I583
sS'tt0074710'
p1603
I662
sS'tt5083152'
p1604
I1028
sS'tt0070498'
p1605
I595
sS'tt3700482'
p1606
I1829
sS'tt0154982'
p1607
I2197
sS'tt2943024'
p1608
I1045
sS'tt0066880'
p1609
I1091
sS'tt3874756'
p1610
I954
sS'tt1405469'
p1611
I745
sS'tt1694561'
p1612
I1296
sS'tt1520485'
p1613
I1814
sS'tt0237202'
p1614
I873
sS'tt0259612'
p1615
I2338
sS'tt0237752'
p1616
I1140
sS'tt2960004'
p1617
I454
sS'tt0321068'
p1618
I2759
sS'tt4487548'
p1619
I1686
sS'tt1745688'
p1620
I1867
sS'tt0368444'
p1621
I530
sS'tt0246924'
p1622
I1888
sS'tt0140370'
p1623
I2531
sS'tt5658580'
p1624
I1315
sS'tt0255373'
p1625
I1487
sS'tt1399046'
p1626
I1927
sS'tt0353280'
p1627
I1589
sS'tt2379727'
p1628
I188
sS'tt0317089'
p1629
I1456
sS'tt0252687'
p1630
I1670
sS'tt3776484'
p1631
I337
sS'tt4270854'
p1632
I1122
sS'tt4298682'
p1633
I890
sS'tt0277060'
p1634
I1441
sS'tt0320411'
p1635
I2223
sS'tt0292174'
p1636
I1387
sS'tt0292176'
p1637
I1518
sS'tt3952870'
p1638
I857
sS'tt0249561'
p1639
I2228
sS'tt0485092'
p1640
I1851
sS'tt2951596'
p1641
I603
sS'tt3337550'
p1642
I140
sS'tt2954770'
p1643
I1720
sS'tt0255457'
p1644
I2460
sS'tt1289515'
p1645
I2712
sS'tt3180664'
p1646
I2751
sS'tt2564144'
p1647
I2012
sS'tt4219894'
p1648
I1716
sS'tt0372784'
p1649
I272
sS'tt0233948'
p1650
I2486
sS'tt1804623'
p1651
I2168
sS'tt0215606'
p1652
I1580
sS'tt3053864'
p1653
I1207
sS'tt3338930'
p1654
I1252
sS'tt2974474'
p1655
I2584
sS'tt5458088'
p1656
I141
sS'tt4928620'
p1657
I1351
sS'tt1587857'
p1658
I825
sS'tt4987556'
p1659
I254
sS'tt2969590'
p1660
I2735
sS'tt1149252'
p1661
I1732
sS'tt4038978'
p1662
I1210
sS'tt0214521'
p1663
I1813
sS'tt0156695'
p1664
I831
sS'tt0301471'
p1665
I1845
sS'tt0156690'
p1666
I2231
sS'tt1407274'
p1667
I1916
sS'tt0267667'
p1668
I1754
sS'tt1464735'
p1669
I2529
sS'tt1437597'
p1670
I2265
sS'tt1985100'
p1671
I976
sS'tt4614362'
p1672
I779
sS'tt5349428'
p1673
I2777
sS'tt0156058'
p1674
I1371
sS'tt0156059'
p1675
I2237
sS'tt0157055'
p1676
I1112
sS'tt0244460'
p1677
I942
sS'tt1047459'
p1678
I423
sS'tt0049752'
p1679
I622
sS'tt0425162'
p1680
I1446
sS'tt0192198'
p1681
I2190
sS'tt0056806'
p1682
I567
sS'tt0154565'
p1683
I357
sS'tt4581722'
p1684
I301
sS'tt0459516'
p1685
I2026
sS'tt0057555'
p1686
I2536
sS'tt1906471'
p1687
I1812
sS'tt1847680'
p1688
I823
sS'tt0245978'
p1689
I2671
sS'tt0073707'
p1690
I48
sS'tt5537724'
p1691
I2610
sS'tt1934231'
p1692
I73
sS'tt0156581'
p1693
I402
sS'tt6041344'
p1694
I1663
sS'tt0234303'
p1695
I2687
sS'tt2454134'
p1696
I465
sS'tt0234659'
p1697
I2313
sS'tt0234658'
p1698
I2625
sS'tt2938702'
p1699
I594
sS'tt0256852'
p1700
I1475
sS'tt0048574'
p1701
I895
sS'tt5889462'
p1702
I204
sS'tt0067546'
p1703
I2532
sS'tt0293589'
p1704
I495
sS'tt0481797'
p1705
I2560
sS'tt1587734'
p1706
I937
sS'tt0367110'
p1707
I22
sS'tt0157460'
p1708
I379
sS'tt1416714'
p1709
I2614
sS'tt0059348'
p1710
I991
sS'tt1279238'
p1711
I2420
sS'tt5508936'
p1712
I2845
sS'tt1918969'
p1713
I810
sS'tt3795628'
p1714
I665
sS'tt0260678'
p1715
I2444
sS'tt0066763'
p1716
I6
sS'tt2637974'
p1717
I1711
sS'tt0240321'
p1718
I1464
sS'tt1279234'
p1719
I2319
sS'tt1492766'
p1720
I1159
sS'tt1582602'
p1721
I1027
sS'tt5016442'
p1722
I175
sS'tt0430567'
p1723
I1750
sS'tt0330883'
p1724
I1699
sS'tt1582609'
p1725
I1076
sS'tt0156132'
p1726
I2156
sS'tt0235274'
p1727
I2553
sS'tt1279230'
p1728
I2422
sS'tt2265389'
p1729
I1736
sS'tt3098414'
p1730
I1149
sS'tt3579644'
p1731
I854
sS'tt5595416'
p1732
I231
sS'tt1821317'
p1733
I2058
sS'tt6076366'
p1734
I251
sS'tt0155610'
p1735
I1352
sS'tt5048612'
p1736
I179
sS'tt0280968'
p1737
I1606
sS'tt0151728'
p1738
I1024
sS'tt1427699'
p1739
I953
sS'tt0269261'
p1740
I1062
sS'tt0350005'
p1741
I584
sS'tt1773764'
p1742
I125
sS'tt1402415'
p1743
I1861
sS'tt2325604'
p1744
I2031
sS'tt3921344'
p1745
I1021
sS'tt5096400'
p1746
I1104
sS'tt0250460'
p1747
I2098
sS'tt0250461'
p1748
I2345
sS'tt0215902'
p1749
I484
sS'tt1582511'
p1750
I870
sS'tt0495627'
p1751
I2838
sS'tt4309648'
p1752
I879
sS'tt1582519'
p1753
I352
sS'tt1582518'
p1754
I869
sS'tt0262810'
p1755
I2415
sS'tt1477110'
p1756
I1985
sS'tt0155801'
p1757
I1617
sS'tt0155802'
p1758
I1596
sS'tt0234872'
p1759
I1751
sS'tt5499818'
p1760
I1131
sS'tt3187718'
p1761
I1832
sS'tt0187503'
p1762
I2459
sS'tt3196334'
p1763
I2675
sS'tt0268221'
p1764
I1279
sS'tt0263402'
p1765
I2376
sS'tt1404036'
p1766
I788
sS'tt0270321'
p1767
I353
sS'tt3903480'
p1768
I1666
sS'tt0066237'
p1769
I775
sS'tt0220656'
p1770
I1993
sS'tt4387040'
p1771
I13
sS'tt0216067'
p1772
I421
sS'tt1539997'
p1773
I1634
sS'tt4736002'
p1774
I1038
sS'tt2379480'
p1775
I2055
sS'tt0249027'
p1776
I1335
sS'tt0096028'
p1777
I81
sS'tt0263997'
p1778
I2295
sS'tt0263994'
p1779
I2318
sS'tt0454487'
p1780
I1241
sS'tt0290622'
p1781
I2087
sS'tt0155664'
p1782
I2158
sS'tt0042329'
p1783
I820
sS'tt1416716'
p1784
I2618
sS'tt0056998'
p1785
I1231
sS'tt3089920'
p1786
I1300
sS'tt0156903'
p1787
I592
sS'tt1537041'
p1788
I802
sS'tt0279389'
p1789
I2289
sS'tt0279384'
p1790
I2093
sS'tt0272103'
p1791
I1400
sS'tt1957909'
p1792
I1739
sS'tt1244614'
p1793
I2408
sS'tt0232515'
p1794
I2719
sS'tt1579854'
p1795
I2427
sS'tt4773212'
p1796
I988
sS'tt0324226'
p1797
I1439
sS'tt1416710'
p1798
I2824
sS'tt2441052'
p1799
I1643
sS'tt0249795'
p1800
I497
sS'tt0263191'
p1801
I2307
sS'tt0252590'
p1802
I2469
sS'tt0100002'
p1803
I429
sS'tt0290447'
p1804
I2435
sS'tt0357154'
p1805
I1497
sS'tt0454578'
p1806
I1268
sS'tt0454579'
p1807
I1198
sS'tt5258390'
p1808
I2727
sS'tt5297578'
p1809
I2513
sS'tt2044079'
p1810
I2132
sS'tt0290448'
p1811
I743
sS'tt0156873'
p1812
I2095
sS'tt0084667'
p1813
I377
sS'tt0075143'
p1814
I323
sS'tt2055577'
p1815
I230
sS'tt0245830'
p1816
I2213
sS'tt2811962'
p1817
I1738
sS'tt2358592'
p1818
I2626
sS'tt1695800'
p1819
I1403
sS'tt0442610'
p1820
I498
sS'tt1405499'
p1821
I795
sS'tt0319626'
p1822
I2128
sS'tt4846770'
p1823
I1250
sS'tt0146335'
p1824
I396
sS'tt5979920'
p1825
I177
sS'tt3983064'
p1826
I1119
sS'tt0342672'
p1827
I1713
sS'tt0216132'
p1828
I905
sS'tt0155067'
p1829
I2054
sS'tt0074926'
p1830
I588
sS'tt3678782'
p1831
I83
sS'tt0054098'
p1832
I2492
sS'tt0389719'
p1833
I2790
sS'tt4896862'
p1834
I1669
sS'tt5997928'
p1835
I462
sS'tt0449951'
p1836
I256
sS'tt0834112'
p1837
I2379
sS'tt0373790'
p1838
I565
sS'tt0466460'
p1839
I77
sS'tt0353725'
p1840
I1494
sS'tt0246913'
p1841
I2038
sS'tt0157339'
p1842
I386
sS'tt4943992'
p1843
I2499
sS'tt0237699'
p1844
I2509
sS'tt1388903'
p1845
I1949
sS'tt0325777'
p1846
I2047
sS'tt1765861'
p1847
I1908
sS'tt0321435'
p1848
I2591
sS'tt0237694'
p1849
I797
sS'tt0275654'
p1850
I1555
sS'tt0439418'
p1851
I2140
sS'tt0318114'
p1852
I710
sS'tt0305483'
p1853
I1726
sS'tt2902584'
p1854
I717
sS'tt0254942'
p1855
I1506
sS'tt1246598'
p1856
I2306
sS'tt3323862'
p1857
I2189
sS'tt4635162'
p1858
I1815
sS'tt5477194'
p1859
I2029
sS'tt0269462'
p1860
I1375
sS'tt0233330'
p1861
I2588
sS'tt2606554'
p1862
I1357
sS'tt4644302'
p1863
I277
sS'tt0060659'
p1864
I474
sS'tt0169102'
p1865
I8
sS'tt0354148'
p1866
I1333
sS'tt0060306'
p1867
I2507
sS'tt1686892'
p1868
I1939
sS'tt0306886'
p1869
I2802
sS'tt0259261'
p1870
I2470
sS'tt1744588'
p1871
I837
sS'tt0259263'
p1872
I1529
sS'tt5872506'
p1873
I154
sS'tt0232550'
p1874
I2840
sS'tt0258823'
p1875
I1675
sS'tt1390840'
p1876
I492
sS'tt0255563'
p1877
I2375
sS'tt0314217'
p1878
I1135
sS'tt0366505'
p1879
I850
sS'tt0388687'
p1880
I841
sS'tt2213054'
p1881
I85
sS'tt1590999'
p1882
I832
sS'tt0051399'
p1883
I1079
sS'tt0283028'
p1884
I1406
sS'tt0248428'
p1885
I2247
sS'tt1407230'
p1886
I1856
sS'tt1407231'
p1887
I1869
sS'tt6178546'
p1888
I2750
sS'tt2673882'
p1889
I1225
sS'tt2608748'
p1890
I1742
sS'tt0213216'
p1891
I1127
sS'tt0213961'
p1892
I1380
sS'tt1584007'
p1893
I785
sS'tt4432480'
p1894
I2595
sS'tt0378647'
p1895
I450
sS'tt0213969'
p1896
I2041
sS'tt3444514'
p1897
I242
sS'tt2606316'
p1898
I1115
sS'tt2275338'
p1899
I1769
sS'tt0157518'
p1900
I611
sS'tt0156060'
p1901
I2269
sS'tt2317103'
p1902
I457
sS'tt1524539'
p1903
I1733
sS'tt1705772'
p1904
I249
sS'tt5537746'
p1905
I2804
sS'tt1891757'
p1906
I164
sS'tt0310714'
p1907
I2711
sS'tt4921860'
p1908
I86
sS'tt0262262'
p1909
I2476
sS'tt3211048'
p1910
I1243
sS'tt0093136'
p1911
I2554
sS'tt0172684'
p1912
I59
sS'tt4152086'
p1913
I881
sS'tt2304650'
p1914
I1719
sS'tt0361788'
p1915
I2412
sS'tt0291876'
p1916
I1379
sS'tt0249359'
p1917
I2394
sS'tt0151917'
p1918
I619
sS'tt0076080'
p1919
I2811
sS'tt0248347'
p1920
I2196
sS'tt5368224'
p1921
I2726
sS'tt4299788'
p1922
I866
sS'tt0248220'
p1923
I2523
sS'tt0286190'
p1924
I1532
sS'tt3892880'
p1925
I1233
sS'tt1402574'
p1926
I2600
sS'tt0262646'
p1927
I2403
sS'tt0312859'
p1928
I1976
sS'tt0230141'
p1929
I546
sS'tt5659988'
p1930
I229
sS'tt0250761'
p1931
I2387
sS'tt1187043'
p1932
I15
sS'tt5137440'
p1933
I1128
sS'tt4249036'
p1934
I855
sS'tt0262866'
p1935
I515
sS'tt1649431'
p1936
I2472
sS'tt2330098'
p1937
I2582
sS'tt1590979'
p1938
I919
sS'tt0211126'
p1939
I369
sS'tt0138994'
p1940
I2530
sS'tt1988774'
p1941
I1627
sS'tt4228378'
p1942
I2701
sS'tt0415144'
p1943
I578
sS'tt0234002'
p1944
I1152
sS'tt0230036'
p1945
I2633
sS'tt0082154'
p1946
I800
sS'tt3599196'
p1947
I2152
sS'tt1404044'
p1948
I863
sS'tt1545576'
p1949
I1019
sS'tt0239795'
p1950
I1325
sS'tt4727512'
p1951
I266
sS'tt0309925'
p1952
I2129
sS'tt2370852'
p1953
I1314
sS'tt4824378'
p1954
I2202
sS'tt0274353'
p1955
I529
sS'tt0077172'
p1956
I2316
sS'tt4382484'
p1957
I1966
sS'tt0453190'
p1958
I2101
sS'tt0215376'
p1959
I1425
sS'tt0302682'
p1960
I1197
sS'tt1843335'
p1961
I2049
sS'tt0363442'
p1962
I1155
sS'tt4744132'
p1963
I983
sS'tt0240777'
p1964
I1373
sS'tt0323013'
p1965
I113
sS'tt3124456'
p1966
I1449
sS'tt0945482'
p1967
I617
sS'tt1418104'
p1968
I2619
sS'tt0150867'
p1969
I928
sS'tt5838806'
p1970
I1502
sS'tt0373856'
p1971
I559
sS'tt0316407'
p1972
I608
sS'tt0141441'
p1973
I1316
sS'tt0254978'
p1974
I1528
sS'tt0364456'
p1975
I2160
sS'tt2881702'
p1976
I2696
sS'tt1610452'
p1977
I1307
sS'tt0781434'
p1978
I2157
sS'tt0268943'
p1979
I1585
sS'tt3947356'
p1980
I150
sS'tt3053796'
p1981
I2791
sS'tt0110591'
p1982
I1727
sS'tt0264745'
p1983
I1253
sS'tt2350496'
p1984
I37
sS'tt1369570'
p1985
I2632
sS'tt1274295'
p1986
I127
sS'tt0220757'
p1987
I291
sS'tt0048987'
p1988
I514
sS'tt2444498'
p1989
I1059
sS'tt0289175'
p1990
I1153
sS'tt0142216'
p1991
I1479
sS'tt1864282'
p1992
I1142
sS'tt1449167'
p1993
I1915
sS'tt1496380'
p1994
I2112
sS'tt3809032'
p1995
I245
sS'tt0305721'
p1996
I2760
sS'tt1418251'
p1997
I2589
sS'tt0457920'
p1998
I1088
sS'tt2408026'
p1999
I1827
sS'tt0311565'
p2000
I2762
sS'tt2210576'
p2001
I599
sS'tt0306971'
p2002
I1247
sS'tt0331417'
p2003
I1667
sS'tt1545591'
p2004
I1117
sS'tt0320792'
p2005
I589
sS'tt0195231'
p2006
I75
sS'tt0150422'
p2007
I2525
sS'tt0324210'
p2008
I735
sS'tt0164538'
p2009
I129
sS'tt0053625'
p2010
I1988
sS'tt0053626'
p2011
I902
sS'tt2419218'
p2012
I2836
sS'tt0100587'
p2013
I1041
sS'tt4692368'
p2014
I2478
sS'tt1342409'
p2015
I2737
sS'tt0232155'
p2016
I2483
sS'tt2564706'
p2017
I156
sS'tt2326059'
p2018
I2203
sS'tt0090812'
p2019
I395
sS'tt2751068'
p2020
I2381
sS'tt0045528'
p2021
I2092
sS'tt5691226'
p2022
I236
sS'tt0249164'
p2023
I2236
sS'tt0213185'
p2024
I1246
sS'tt0355562'
p2025
I2260
sS'tt5012994'
p2026
I1107
sS'tt0264415'
p2027
I532
sS'tt0156995'
p2028
I2558
sS'tt4773064'
p2029
I955
sS'tt0074730'
p2030
I302
sS'tt0312538'
p2031
I1658
sS'tt0091256'
p2032
I312
sS'tt0140784'
p2033
I500
sS'tt1394373'
p2034
I2822
sS'tt0245829'
p2035
I2234
sS'tt0070259'
p2036
I2648
sS'tt0249185'
p2037
I1501
sS'tt1786389'
p2038
I963
sS'tt0319182'
p2039
I2356
sS'tt2986430'
p2040
I1882
sS'tt1526875'
p2041
I477
sS'tt0165795'
p2042
I463
sS'tt3171872'
p2043
I2808
sS'tt1269579'
p2044
I1120
sS'tt4937518'
p2045
I2477
sS'tt5545568'
p2046
I170
sS'tt0255314'
p2047
I1982
sS'tt3560364'
p2048
I2772
sS'tt2668860'
p2049
I359
sS'tt2567768'
p2050
I1132
sS'tt0279310'
p2051
I1526
sS'tt0368267'
p2052
I1145
sS'tt0881930'
p2053
I1491
sS'tt3182644'
p2054
I2155
sS'tt0325769'
p2055
I2097
sS'tt0414713'
p2056
I1311
sS'tt0308194'
p2057
I1177
sS'tt0292114'
p2058
I1550
sS'tt0249188'
p2059
I1358
sS'tt1000112'
p2060
I844
sS'tt1000113'
p2061
I1085
sS'tt0250240'
p2062
I2125
sS'tt1000111'
p2063
I824
sS'tt0314665'
p2064
I2564
sS'tt0248500'
p2065
I2244
sS'tt1399087'
p2066
I1912
sS'tt0291703'
p2067
I1521
sS'tt0282889'
p2068
I1593
sS'tt0233321'
p2069
I2592
sS'tt0157454'
p2070
I1072
sS'tt0233329'
p2071
I2658
sS'tt0353935'
p2072
I1354
sS'tt0860399'
p2073
I746
sS'tt0764269'
p2074
I721
sS'tt0351714'
p2075
I485
sS'tt0299693'
p2076
I1628
sS'tt1473002'
p2077
I1921
sS'tt4580926'
p2078
I2390
sS'tt0312712'
p2079
I1896
sS'tt2400377'
p2080
I1745
sS'tt0157294'
p2081
I897
sS'tt0060689'
p2082
I376
sS'tt0273458'
p2083
I2570
sS'tt2926068'
p2084
I2474
sS'tt3645938'
p2085
I1804
sS'tt0288241'
p2086
I1407
sS'tt1093370'
p2087
I51
sS'tt0075860'
p2088
I14
sS'tt5504168'
p2089
I2299
sS'tt0314004'
p2090
I1007
sS'tt3590482'
p2091
I172
sS'tt5037912'
p2092
I2121
sS'tt1534555'
p2093
I830
sS'tt2451894'
p2094
I1411
sS'tt0156079'
p2095
I2040
sS'tt0101279'
p2096
I809
sS'tt0213220'
p2097
I1221
sS'tt3189256'
p2098
I2587
sS'tt0267513'
p2099
I1805
sS'tt0259415'
p2100
I2272
sS'tt0108490'
p2101
I1505
sS'tt2302966'
p2102
I259
sS'tt0245252'
p2103
I2016
sS'tt3019620'
p2104
I137
sS'tt0317104'
p2105
I1866
sS'tt0101649'
p2106
I1983
sS'tt0096776'
p2107
I2288
sS'tt0313447'
p2108
I730
sS'tt4313186'
p2109
I884
sS'tt5457840'
p2110
I264
sS'tt4313180'
p2111
I847
sS'tt0215215'
p2112
I672
sS'tt0109140'
p2113
I1139
sS'tt0081968'
p2114
I405
sS'tt0156256'
p2115
I378
sS'tt0232625'
p2116
I2662
sS'tt1399954'
p2117
I2697
sS'tt0087736'
p2118
I455
sS'tt0262309'
p2119
I2334
sS'tt0262659'
p2120
I2286
sS'tt0262304'
p2121
I2211
sS'tt0110076'
p2122
I112
sS'tt5164436'
p2123
I2480
sS'tt0318360'
p2124
I1372
sS'tt0261300'
p2125
I1790
sS'tt2187003'
p2126
I1006
sS'tt0302673'
p2127
I1184
sS'tt0843533'
p2128
I2700
sS'tt3195576'
p2129
I1133
sS'tt0234457'
p2130
I2145
sS'tt4505006'
p2131
I440
sS'tt0281346'
p2132
I2396
sS'tt3914878'
p2133
I1002
sS'tt4629058'
p2134
I1780
sS'tt0853142'
p2135
I967
sS'tt0094951'
p2136
I2297
sS'tt0400795'
p2137
I2489
sS'tt1019906'
p2138
I648
sS'tt1438298'
p2139
I90
sS'tt0155124'
p2140
I2303
sS'tt0396964'
p2141
I1659
sS'tt0056134'
p2142
I856
sS'tt0396961'
p2143
I1709
sS'tt0058925'
p2144
I700
sS'tt0396963'
p2145
I1763
sS'tt3918808'
p2146
I650
sS'tt2320258'
p2147
I1873
sS'tt2146054'
p2148
I2740
sS'tt0156490'
p2149
I679
sS'tt0069671'
p2150
I316
sS'tt2407652'
p2151
I555
sS'tt1188996'
p2152
I9
sS'tt0234070'
p2153
I1260
sS'tt0230020'
p2154
I1161
sS'tt0285665'
p2155
I268
sS'tt4312904'
p2156
I1075
sS'tt1077248'
p2157
I118
sS'tt0316525'
p2158
I943
sS'tt4312908'
p2159
I910
sS'tt0269838'
p2160
I2372
sS'tt0259485'
p2161
I2347
sS'tt0214968'
p2162
I1409
sS'tt1754137'
p2163
I507
sS'tt1190894'
p2164
I1948
sS'tt4625196'
p2165
I1402
sS'tt0266605'
p2166
I2443
sS'tt5240178'
p2167
I690
sS'tt5762190'
p2168
I2597
sS'tt0066324'
p2169
I2748
sS'tt0317728'
p2170
I1430
sS'tt1587683'
p2171
I1722
sS'tt3867478'
p2172
I1106
sS'tt0429607'
p2173
I744
sS'tt0271827'
p2174
I946
sS'tt0371644'
p2175
I2258
sS'tt0263993'
p2176
I2309
sS'tt0363454'
p2177
I940
sS'tt0102179'
p2178
I1416
sS'tt0363904'
p2179
I1025
sS'tt0363905'
p2180
I951
sS'tt0945496'
p2181
I670
sS'tt0249750'
p2182
I1803
sS'tt5111542'
p2183
I1143
sS'tt0220832'
p2184
I303
sS'tt3390572'
p2185
I52
sS'tt0068217'
p2186
I451
sS'tt1263679'
p2187
I1318
sS'tt1582572'
p2188
I1030
sS'tt3738624'
p2189
I2649
sS'tt3982558'
p2190
I1654
sS'tt4186118'
p2191
I1514
sS'tt4484676'
p2192
I2331
sS'tt2522328'
p2193
I1542
sS'tt2325915'
p2194
I2178
sS'tt0374812'
p2195
I1093
sS'tt3810932'
p2196
I2368
sS'tt3742262'
p2197
I2714
sS'tt0187496'
p2198
I2172
sS'tt0140377'
p2199
I1972
sS'tt0106655'
p2200
I373
sS'tt0310110'
p2201
I1647
sS'tt0832338'
p2202
I2716
sS'tt4917618'
p2203
I2705
sS'tt0246579'
p2204
I1875
sS'tt0231428'
p2205
I716
sS'tt0061073'
p2206
I557
sS'tt0061072'
p2207
I540
sS'tt0246805'
p2208
I2151
sS'tt0233180'
p2209
I2738
sS'tt0374781'
p2210
I752
sS'tt1440158'
p2211
I1876
sS'tt0246804'
p2212
I2018
sS'tt0284137'
p2213
I1282
sS'tt0046686'
p2214
I712
sS'tt0192566'
p2215
I1749
sS'tt2780998'
p2216
I258
sS'tt3320542'
p2217
I2752
sS'tt0135399'
p2218
I1320
sS'tt0187419'
p2219
I1334
sS'tt0311574'
p2220
I2706
sS'tt2188733'
p2221
I1537
sS'tt0155917'
p2222
I1583
sS'tt5021536'
p2223
I2652
sS'tt0150433'
p2224
I122
sS'tt5111382'
p2225
I647
sS'tt0271600'
p2226
I2266
sS'tt4844708'
p2227
I598
sS'tt0252726'
p2228
I1710
sS'tt0271355'
p2229
I1619
sS'tt0099652'
p2230
I391
sS'tt0290463'
p2231
I1156
sS'tt6120548'
p2232
I1692
sS'tt3446426'
p2233
I1794
sS'tt2935218'
p2234
I1098
sS'tt4773090'
p2235
I1928
sS'tt1839596'
p2236
I27
sS'tt3813880'
p2237
I2646
sS'tt5237816'
p2238
I2753
sS'tt0202055'
p2239
I1452
sS'tt0156818'
p2240
I927
sS'tt4772786'
p2241
I685
sS'tt1244613'
p2242
I2349
sS'tt1623696'
p2243
I678
sS'tt5156652'
p2244
I2568
sS'tt0231375'
p2245
I2594
sS'tt3828724'
p2246
I533
sS'tt0271771'
p2247
I1592
sS'tt3368858'
p2248
I2674
sS'tt0787524'
p2249
I2561
sS'tt0249358'
p2250
I475
sS'tt0271594'
p2251
I1459
sS'tt0262695'
p2252
I2402
sS'tt0249351'
p2253
I2274
sS'tt2955162'
p2254
I2807
sS'tt5697392'
p2255
I2494
sS'tt0263022'
p2256
I2457
sS'tt0146791'
p2257
I499
sS'tt1906386'
p2258
I660
sS'tt4959068'
p2259
I765
sS'tt1416732'
p2260
I2756
sS'tt3138840'
p2261
I990
sS'tt0255306'
p2262
I1355
sS'tt4472992'
p2263
I1714
sS'tt0213647'
p2264
I1193
sS'tt3848892'
p2265
I68
sS'tt2780978'
p2266
I1173
sS'tt6106494'
p2267
I267
sS'tt0050132'
p2268
I504
sS'tt1244014'
p2269
I1257
sS'tt0347779'
p2270
I366
sS'tt0432047'
p2271
I88
sS'tt0037412'
p2272
I974
sS'tt0300980'
p2273
I453
sS'tt3345830'
p2274
I1746
sS'tt0073658'
p2275
I657
sS'tt0114234'
p2276
I290
sS'tt0360960'
p2277
I1048
sS'tt1000129'
p2278
I901
sS'tt0246809'
p2279
I1608
sS'tt0269400'
p2280
I1324
sS'tt0079889'
p2281
I1366
sS'tt0060679'
p2282
I1889
sS'tt5320514'
p2283
I1543
sS'tt4859324'
p2284
I159
sS'tt4300624'
p2285
I864
sS'tt6035564'
p2286
I2609
sS'tt0259240'
p2287
I2322
sS'tt0405266'
p2288
I328
sS'tt1430836'
p2289
I2062
sS'tt0361506'
p2290
I2216
sS'tt3510102'
p2291
I2214
sS'tt0288258'
p2292
I2268
sS'tt1579634'
p2293
I2360
sS'tt3008348'
p2294
I2789
sS'tt0031829'
p2295
I2535
sS'tt2078763'
p2296
I2102
sS'tt1041853'
p2297
I998
sS'tt0862940'
p2298
I1496
sS'tt1821682'
p2299
I1451
sS'tt1629391'
p2300
I1295
sS'tt0156395'
p2301
I732
sS'tt4772920'
p2302
I1020
sS'tt0308032'
p2303
I1877
sS'tt0311381'
p2304
I2734
sS'tt4561448'
p2305
I2622
sS'tt1921019'
p2306
I1564
sS'tt0367900'
p2307
I681
sS'tt0157061'
p2308
I1077
sS'tt1714832'
p2309
I349
sS'tt4834850'
p2310
I180
sS'tt2188116'
p2311
I2555
sS'tt3902736'
p2312
I872
sS'tt1431707'
p2313
I2251
sS'tt0305977'
p2314
I725
sS'tt1876259'
p2315
I1955
sS'tt1835901'
p2316
I1706
sS'tt4156344'
p2317
I774
sS'tt0355224'
p2318
I1141
sS'tt0070809'
p2319
I1100
sS'tt1496729'
p2320
I1978
sS'tt3185772'
p2321
I2014
sS'tt2248028'
p2322
I1632
sS'tt1414468'
p2323
I2629
sS'tt1002963'
p2324
I418
sS'tt0278501'
p2325
I1360
sS'tt0280418'
p2326
I2370
sS'tt4313192'
p2327
I861
sS'tt2107838'
p2328
I534
sS'tt2624392'
p2329
I597
sS'tt0808357'
p2330
I10
sS'tt4901222'
p2331
I1188
sS'tt0302410'
p2332
I2270
sS'tt0097043'
p2333
I1560
sS'tt0072064'
p2334
I428
sS'tt5532844'
p2335
I1199
sS'tt2179133'
p2336
I238
sS'tt3565264'
p2337
I2082
sS'tt2521252'
p2338
I1743
sS'tt0280465'
p2339
I1950
sS'tt0214192'
p2340
I1244
sS'tt0304067'
p2341
I1821
sS'tt0046304'
p2342
I979
sS'tt1447500'
p2343
I198
sS'tt3041778'
p2344
I1236
sS'tt0158579'
p2345
I505
sS'tt0293385'
p2346
I2037
sS'tt0400234'
p2347
I57
sS'tt1589985'
p2348
I1136
sS'tt0411469'
p2349
I143
sS'tt0452282'
p2350
I1787
sS'tt0073627'
p2351
I580
sS'tt5175168'
p2352
I2280
sS'tt2960140'
p2353
I2825
sS'tt2408912'
p2354
I1099
sS'tt0067403'
p2355
I481
sS'tt0214996'
p2356
I1594
sS'tt1434447'
p2357
I110
sS'tt0087417'
p2358
I384
sS'tt1643227'
p2359
I1267
sS'tt0278768'
p2360
I1591
sS'tt0151156'
p2361
I522
sS'tt2976176'
p2362
I375
sS'tt5489428'
p2363
I1054
sS'tt0376076'
p2364
I1967
sS'tt5200814'
p2365
I275
sS'tt4242438'
p2366
I669
sS'tt0257571'
p2367
I2447
sS'tt0157845'
p2368
I536
sS'tt0154713'
p2369
I2122
sS'tt2904650'
p2370
I1068
sS'tt2552412'
p2371
I1297
sS'tt0355910'
p2372
I2284
sS'tt0154715'
p2373
I923
sS'tt0097437'
p2374
I1343
sS'tt3533672'
p2375
I1223
sS'tt0156876'
p2376
I1015
sS'tt1587676'
p2377
I1800
sS'tt3334374'
p2378
I2495
sS'tt0215001'
p2379
I1046
sS'tt0240200'
p2380
I56
sS'tt1402422'
p2381
I1909
sS'tt0244238'
p2382
I2120
sS'tt2353801'
p2383
I1834
sS'tt2609170'
p2384
I913
sS'tt0309652'
p2385
I1854
sS'tt1414545'
p2386
I2765
sS'tt0149694'
p2387
I899
sS'tt0290693'
p2388
I2044
sS'tt2196254'
p2389
I1217
sS'tt2497024'
p2390
I1741
sS'tt0257373'
p2391
I2446
sS'tt0155725'
p2392
I2374
sS'tt1275692'
p2393
I771
sS'tt3885736'
p2394
I1492
sS'tt0158022'
p2395
I839
sS'tt0084027'
p2396
I894
sS'tt0140090'
p2397
I2017
sS'tt0247291'
p2398
I1292
sS'tt1404008'
p2399
I1058
sS'tt5077742'
p2400
I626
sS'tt1670635'
p2401
I2170
sS'tt0246215'
p2402
I2620
sS'tt5780076'
p2403
I216
sS'tt3556240'
p2404
I1671
sS'tt4288730'
p2405
I1685
sS'tt0286576'
p2406
I2551
sS'tt0231348'
p2407
I486
sS'tt4452448'
p2408
I2296
sS'tt0290676'
p2409
I2576
sS'tt1296386'
p2410
I2514
sS'tt0316269'
p2411
I2032
sS'tt0316268'
p2412
I1162
sS'tt2265207'
p2413
I803
sS'tt0155927'
p2414
I2123
sS'tt4022394'
p2415
I1102
sS'tt2065924'
p2416
I2045
sS'tt2980794'
p2417
I94
sS'tt0263833'
p2418
I2357
sS'tt1781838'
p2419
I1946
sS'tt0845554'
p2420
I1817
sS'tt1869253'
p2421
I1753
sS'tt1653015'
p2422
I1734
sS'tt4557064'
p2423
I1597
sS'tt0246106'
p2424
I2728
sS'tt0237372'
p2425
I975
sS'tt1440245'
p2426
I1913
sS'tt0216141'
p2427
I733
sS'tt0237376'
p2428
I1369
sS'tt0324419'
p2429
I2581
sS'tt5948916'
p2430
I203
sS'tt0375571'
p2431
I2141
sS'tt3395608'
p2432
I2491
sS'tt0231233'
p2433
I705
sS'tt6117534'
p2434
I1364
sS'tt0292319'
p2435
I1444
sS'tt0045506'
p2436
I506
sS'tt1407291'
p2437
I1871
sS'tt0330054'
p2438
I2277
sS'tt1292703'
p2439
I111
sS'tt0263915'
p2440
I2267
sS'tt3400176'
p2441
I1959
sS'tt3584732'
p2442
I1089
sS'tt2363047'
p2443
I1639
sS'tt1601792'
p2444
I2369
sS'tt0271769'
p2445
I2242
sS'tt1440160'
p2446
I1923
sS'tt1440167'
p2447
I2086
sS'tt2197895'
p2448
I300
sS'tt0078418'
p2449
I469
sS'tt2511496'
p2450
I2693
sS'tt0319165'
p2451
I1330
sS'tt0187115'
p2452
I2473
sS'tt2146960'
p2453
I1994
sS'tt3874486'
p2454
I783
sS'tt4374126'
p2455
I2520
sS'tt1283493'
p2456
I2731
sS'tt0246964'
p2457
I1862
sS'tt0065764'
p2458
I548
sS'tt0079098'
p2459
I970
sS'tt0142681'
p2460
I1171
sS'tt0305811'
p2461
I2467
sS'tt0154387'
p2462
I766
sS'tt3717068'
p2463
I171
sS'tt0292023'
p2464
I1562
sS'tt0299108'
p2465
I292
sS'tt0308513'
p2466
I1172
sS'tt0157385'
p2467
I1167
sS'tt0154879'
p2468
I2024
sS'tt0322493'
p2469
I687
sS'tt4299804'
p2470
I867
sS'tt0246011'
p2471
I2298
sS'tt4799774'
p2472
I2747
sS'tt1437586'
p2473
I2218
sS'tt0063404'
p2474
I398
sS'tt2421504'
p2475
I2828
sS'tt0385928'
p2476
I2109
sS'tt5378096'
p2477
I649
sS'tt0237394'
p2478
I706
sS'tt0299078'
p2479
I467
sS'tt0232050'
p2480
I564
sS'tt0060444'
p2481
I1264
sS'tt0091695'
p2482
I1527
sS'tt4888834'
p2483
I1340
sS'tt0085925'
p2484
I2135
sS'tt4758556'
p2485
I2695
sS'tt0267277'
p2486
I1652
sS'tt3771900'
p2487
I1219
sS'tt0273477'
p2488
I1698
sS'tt0112553'
p2489
I315
sS'tt5348692'
p2490
I2848
sS'tt0073458'
p2491
I422
sS'tt1418295'
p2492
I2713
sS'tt1437617'
p2493
I2382
sS'tt0076696'
p2494
I142
sS'tt0262702'
p2495
I2378
sS'tt0280786'
p2496
I2207
sS'tt0049378'
p2497
I544
sS'tt0311390'
p2498
I1248
sS'tt0232152'
p2499
I2585
sS'tt3080148'
p2500
I945
sS'tt0178243'
p2501
I960
sS'tt3417422'
p2502
I209
sS'tt0064364'
p2503
I2575
sS'tt0252316'
p2504
I1809
sS'tt5376232'
p2505
I1546
sS'tt3902726'
p2506
I620
sS'tt2575896'
p2507
I1681
sS'tt2404187'
p2508
I590
sS'tt3978972'
p2509
I2233
sS'tt4245492'
p2510
I1083
sS'tt0363110'
p2511
I1552
sS'tt0040067'
p2512
I466
sS'tt0139872'
p2513
I2107
sS'tt1590035'
p2514
I689
sS'tt0139876'
p2515
I351
sS'tt0359750'
p2516
I447
sS'tt1359552'
p2517
I148
sS'tt1904875'
p2518
I1283
sS'tt0292246'
p2519
I191
sS'tt4213694'
p2520
I882
sS'tt4482970'
p2521
I1213
sS'tt1399055'
p2522
I2642
sS'tt3638644'
p2523
I241
sS'tt5730900'
p2524
I2484
sS'tt0352624'
p2525
I1473
sS'tt0262671'
p2526
I2438
sS'tt1523560'
p2527
I781
sS'tt0157125'
p2528
I2556
sS'tt0279910'
p2529
I1565
sS'tt2471706'
p2530
I1779
sS'tt0234436'
p2531
I1377
sS'tt1499679'
p2532
I1332
sS'tt5201570'
p2533
I674
sS'tt0098255'
p2534
I987
sS'tt0262855'
p2535
I2308
sS'tt0355673'
p2536
I2433
sS'tt0473367'
p2537
I82
sS'tt0175776'
p2538
I1648
sS'tt2918996'
p2539
I2833
sS'tt1589991'
p2540
I926
sS'tt0094979'
p2541
I1957
sS'tt0273870'
p2542
I1638
sS'tt5005684'
p2543
I130
sS'tt0362696'
p2544
I163
sS'tt0316049'
p2545
I1067
sS'tt0888503'
p2546
I2192
sS'tt5439762'
p2547
I1404
sS'tt1606261'
p2548
I2421
sS'tt2187153'
p2549
I145
sS'tt0214704'
p2550
I413
sS'tt0082162'
p2551
I356
sS'tt0230003'
p2552
I1476
sS'tt0105575'
p2553
I1984
sS'tt1591032'
p2554
I916
sS'tt2624704'
p2555
I1539
sS'tt0260691'
p2556
I2686
sS'tt0260692'
p2557
I2380
sS'tt5377564'
p2558
I2722
sS'tt3178292'
p2559
I2571
sS'tt0261348'
p2560
I2702
sS'tt3061202'
p2561
I1510
sS'tt4302726'
p2562
I1676
sS'tt0214944'
p2563
I1442
sS'tt0810834'
p2564
I1281
sS'tt0214940'
p2565
I2188
sS'tt3451716'
p2566
I1828
sS'tt0155652'
p2567
I1651
sS'tt5225580'
p2568
I234
sS'tt3207378'
p2569
I2232
sS'tt1773015'
p2570
I340
sS'tt0257962'
p2571
I2209
sS'tt1431325'
p2572
I1925
sS'tt0230917'
p2573
I1760
sS'tt0047269'
p2574
I1013
sS'tt0363929'
p2575
I1329
sS'tt0473567'
p2576
I318
sS'tt1364295'
p2577
I2627
sS'tt2949590'
p2578
I2464
sS'tt1068956'
p2579
I165
sS'tt1582550'
p2580
I889
sS'tt0230597'
p2581
I1347
sS'tt0937409'
p2582
I1266
sS'tt0235522'
p2583
I2746
sS'tt0265799'
p2584
I2392
sS'tt0235525'
p2585
I2818
sS'tt0331261'
p2586
I1951
sS'tt0450432'
p2587
I2329
sS'tt0240875'
p2588
I2056
sS'tt4192656'
p2589
I992
sS'tt5900116'
p2590
I1690
sS'tt1440225'
p2591
I1903
sS'tt5652478'
p2592
I2843
sS'tt1645919'
p2593
I638
sS'tt2053389'
p2594
I1272
sS'tt1228754'
p2595
I1788
sS'tt0072860'
p2596
I562
sS'tt1664809'
p2597
I342
sS'tt3614516'
p2598
I99
sS'tt0140534'
p2599
I1998
sS'tt0449221'
p2600
I1304
sS'tt1822266'
p2601
I1767
sS'tt1418284'
p2602
I1906
sS'tt5190958'
p2603
I1687
sS'tt3548806'
p2604
I2404
sS'tt0306434'
p2605
I123
sS'tt4990516'
p2606
I449
sS'tt0316078'
p2607
I2179
sS'tt0150417'
p2608
I502
sS'tt4443924'
p2609
I1786
sS'tt0926332'
p2610
I1047
sS'tt0230483'
p2611
I2637
sS'tt4163510'
p2612
I892
sS'tt0052217'
p2613
I513
sS'tt0237364'
p2614
I701
sS'tt2191164'
p2615
I443
sS'tt0237363'
p2616
I1586
sS'tt6134214'
p2617
I977
sS'tt0458050'
p2618
I2009
sS'tt1720047'
p2619
I2169
sS'tt0233331'
p2620
I1462
sS'tt3956366'
p2621
I2812
sS'tt0238575'
p2622
I1801
sS'tt0231246'
p2623
I2754
sS'tt0053985'
p2624
I425
sS'tt0153549'
p2625
I2485
sS'tt0457802'
p2626
I400
sS'tt0402014'
p2627
I144
sS'tt3863552'
p2628
I60
sS'tt3832022'
p2629
I1664
sS'tt1503767'
p2630
I1118
sS'tt1596721'
p2631
I1306
sS'tt2152896'
p2632
I2113
sS'tt2999262'
p2633
I777
sS'tt3202972'
p2634
I2664
sS'tt0393452'
p2635
I1601
sS'tt0307978'
p2636
I2628
sS'tt1836826'
p2637
I1294
sS'tt4736040'
p2638
I925
sS'tt4446318'
p2639
I2139
sS'tt0374342'
p2640
I452
sS'tt1401709'
p2641
I2656
sS'tt0258796'
p2642
I1691
sS'tt0032836'
p2643
I1060
sS'tt1548615'
p2644
I722
sS'tt4168188'
p2645
I343
sS'tt2827320'
p2646
I219
sS'tt1441324'
p2647
I2052
sS'tt0237499'
p2648
I798
sS'tt0079221'
p2649
I87
sS'tt0074858'
p2650
I537
sS'tt0053765'
p2651
I859
sS'tt0249936'
p2652
I1438
sS'tt0472620'
p2653
I2241
sS'tt0254982'
p2654
I2452
sS'tt0071083'
p2655
I566
sS'tt0055341'
p2656
I786
sS'tt5571734'
p2657
I20
sS'tt3332022'
p2658
I503
sS'tt0983994'
p2659
I1744
sS'tt0352457'
p2660
I1503
sS'tt3825436'
p2661
I917
sS'tt0983990'
p2662
I488
sS'tt0315255'
p2663
I2647
sS'tt0269422'
p2664
I1384
sS'tt3675896'
p2665
I1522
sS'tt0232280'
p2666
I714
sS'tt1427095'
p2667
I2324
sS'tt1279235'
p2668
I2341
sS'tt0070681'
p2669
I2212
sS'tt1279237'
p2670
I2465
sS'tt1279236'
p2671
I2259
sS'tt1279231'
p2672
I2339
sS'tt0290937'
p2673
I240
sS'tt1279232'
p2674
I2323
sS'tt2306721'
p2675
I510
sS'tt0308786'
p2676
I1237
sS'tt0329393'
p2677
I417
sS'tt0401898'
p2678
I2793
sS'tt0920464'
p2679
I136
sS'tt1593772'
p2680
I693
sS'tt0104561'
p2681
I70
sS'tt2203855'
p2682
I1818
sS'tt0362067'
p2683
I921
sS'tt1024645'
p2684
I1206
sS'tt0232261'
p2685
I1796
sS'tt0072190'
p2686
I639
sS'tt0296574'
p2687
I101
sS'tt1041833'
p2688
I666
sS'tt0245129'
p2689
I2770
sS'tt5309926'
p2690
I596
sS'tt0254850'
p2691
I2261
sS'tt0258886'
p2692
I1611
sS'tt0214571'
p2693
I1879
sS'tt3368384'
p2694
I1677
sS'tt0237036'
p2695
I813
sS'tt0237038'
p2696
I1342
sS'tt0267017'
p2697
I2434
sS'tt0321968'
p2698
I817
sS'tt0157002'
p2699
I1114
sS'tt1500815'
p2700
I1278
sS'tt0267781'
p2701
I1777
sS'tt4683676'
p2702
I2502
sS'tt1458916'
p2703
I738
sS'tt1435468'
p2704
I1940
sS'tt2283748'
p2705
I98
sS'tt4321682'
p2706
I985
sS'tt0155487'
p2707
I1450
sS'tt0433425'
p2708
I178
sS'tt0056052'
p2709
I329
sS'tt0248269'
p2710
I2068
sS'tt0232863'
p2711
I1781
sS'tt5503966'
p2712
I480
sS'tt0292277'
p2713
I1551
sS'tt0215711'
p2714
I764
sS'tt3426262'
p2715
I2080
sS'tt0234066'
p2716
I2199
sS'tt0054831'
p2717
I1009
sS'tt0158914'
p2718
I1765
sS'tt0266303'
p2719
I2405
sS'tt1402532'
p2720
I1937
sS'tt3741834'
p2721
I19
sS'tt1402531'
p2722
I1935
sS'tt0213387'
p2723
I2425
sS'tt0280447'
p2724
I2641
sS'tt0371774'
p2725
I2796
sS'tt3732958'
p2726
I2667
sS'tt0367495'
p2727
I32
sS'tt0317624'
p2728
I2673
sS'tt0308543'
p2729
I2703
sS'tt0154463'
p2730
I2076
sS'tt0154462'
p2731
I2007
sS'tt2215343'
p2732
I2003
sS'tt5824826'
p2733
I2336
sS'tt1431202'
p2734
I1917
sS'tt2113795'
p2735
I891
sS'tt1527068'
p2736
I931
sS'tt1402421'
p2737
I2636
sS'tt4597882'
p2738
I1222
sS'tt0067421'
p2739
I434
sS'tt4912834'
p2740
I632
sS'tt2624280'
p2741
I877
sS'tt2007994'
p2742
I1823
sS'tt0156358'
p2743
I920
sS'tt0234737'
p2744
I2458
sS'tt0043026'
p2745
I723
sS'tt0156352'
p2746
I1125
sS'tt0234048'
p2747
I2493
sS'tt0214719'
p2748
I833
sS'tt0120456'
p2749
I306
sS'tt3785070'
p2750
I1097
sS'tt0067607'
p2751
I2229
sS'tt3666724'
p2752
I2842
sS'tt3569652'
p2753
I2110
sS'tt3801252'
p2754
I2519
sS'tt2007972'
p2755
I1849
sS'tt1282495'
p2756
I2798
sS'tt2347277'
p2757
I962
sS'tt0196324'
p2758
I1766
sS'tt1620620'
p2759
I1052
sS'tt1437827'
p2760
I2783
sS'tt0215023'
p2761
I1566
sS'tt0069737'
p2762
I773
sS'tt0261331'
p2763
I2385
sS'tt0261334'
p2764
I2454
sS'tt0215029'
p2765
I1480
sS'tt3365690'
p2766
I168
sS'tt0236972'
p2767
I760
sS'tt5849148'
p2768
I1965
sS'tt0236976'
p2769
I1063
sS'tt0307202'
p2770
I2834
sS'tt1447508'
p2771
I387
sS'tt0088031'
p2772
I336
sS'tt0396862'
p2773
I756
sS'tt2759390'
p2774
I2583
sS'tt5032300'
p2775
I845
sS'tt0250745'
p2776
I2657
sS'tt3517192'
p2777
I1525
sS'tt1244553'
p2778
I2263
sS'tt0158007'
p2779
I750
sS'tt0073034'
p2780
I541
sS'tt3342558'
p2781
I235
sS'tt0231114'
p2782
I2823
sS'tt0320421'
p2783
I2105
sS'tt0097851'
p2784
I1571
sS'tt0326103'
p2785
I2328
sS'tt4088588'
p2786
I42
sS'tt4315528'
p2787
I2204
sS'tt0429768'
p2788
I718
sS'tt1920888'
p2789
I645
sS'tt0246012'
p2790
I2373
sS'tt3822388'
p2791
I2057
sS'tt4183862'
p2792
I1853
sS'tt0077797'
p2793
I355
sS'tt0106333'
p2794
I121
sS'tt0149875'
p2795
I1066
sS'tt3171754'
p2796
I2849
sS'tt2923282'
p2797
I2768
sS'tt0236992'
p2798
I1150
sS'tt0082971'
p2799
I224
sS'tt1542936'
p2800
I914
sS'tt0154118'
p2801
I2400
sS'tt4248672'
p2802
I1326
sS'tt0090109'
p2803
I2367
sS'tt5100216'
p2804
I1026
sS'tt0268167'
p2805
I615
sS'tt0327960'
p2806
I2292
sS'tt5784778'
p2807
I403
sS'tt0231520'
p2808
I602
sS'tt1161732'
p2809
I1839
sS'tt2365873'
p2810
I173
sS'tt5068892'
p2811
I390
sS'tt0237820'
p2812
I1337
sS'tt0369447'
p2813
I2075
sS'tt5336366'
p2814
I676
sS'tt0237555'
p2815
I932
sS'tt0235607'
p2816
I2174
sS'tt5143450'
p2817
I2064
sS'tt0083570'
p2818
I2539
sS'tt0085726'
p2819
I948
sS'tt0083575'
p2820
I460
sS'tt0083578'
p2821
I558
sS'tt2592236'
p2822
I1599
sS'tt1454145'
p2823
I1855
sS'tt5465374'
p2824
I2729
sS'tt0099043'
p2825
I350
sS'tt3006576'
p2826
I2764
sS'tt0158755'
p2827
I1018
sS'tt1729652'
p2828
I1825
sS'tt1339248'
p2829
I2800
sS'tt0249386'
p2830
I1724
sS'tt0249385'
p2831
I1899
sS'tt0249384'
p2832
I1857
sS'tt1189046'
p2833
I1029
sS'tt4088328'
p2834
I807
sS'tt0295294'
p2835
I512
sS'tt0390831'
p2836
I1004
sS'tt5771640'
p2837
I2488
sS'tt0195002'
p2838
I296
sS'tt0338472'
p2839
I579
sS'tt1568887'
p2840
I1434
sS'tt0235609'
p2841
I2027
sS'tt4378690'
p2842
I1050
sS'tt1603832'
p2843
I478
sS'tt0235604'
p2844
I2201
sS'tt2928172'
p2845
I1900
sS'tt0308534'
p2846
I1234
sS'tt6130166'
p2847
I271
sS'tt0485965'
p2848
I726
sS'tt1608777'
p2849
I1271
sS'tt0465904'
p2850
I896
s(dp2851
I1
g974
sI2
g537
sI3
g1222
sI4
g842
sI5
g1201
sI6
g1716
sI7
g1298
sI8
g1865
sI9
g2152
sI10
g2330
sI11
g1275
sI12
g1567
sI13
g1771
sI14
g2088
sI15
g1932
sI16
g471
sI17
g1355
sI18
g342
sI19
g2721
sI20
g2657
sI21
g946
sI22
g1707
sI23
g1069
sI24
g1435
sI25
g602
sI26
g71
sI27
g2236
sI28
g591
sI29
g499
sI30
g439
sI31
g1251
sI32
g2727
sI33
g1101
sI34
g28
sI35
g1317
sI36
g825
sI37
g1984
sI38
g309
sI39
g584
sI40
g811
sI41
g973
sI42
g2786
sI43
g569
sI44
g1375
sI45
g478
sI46
g491
sI47
g797
sI48
g1690
sI49
g632
sI50
g1312
sI51
g2087
sI52
g2185
sI53
g847
sI54
g136
sI55
g132
sI56
g2380
sI57
g2347
sI58
g686
sI59
g1912
sI60
g2628
sI61
g1277
sI62
g375
sI63
g486
sI64
g872
sI65
g1197
sI66
g264
sI67
g1115
sI68
g2265
sI69
g885
sI70
g2681
sI71
g225
sI72
g1077
sI73
g1692
sI74
g1215
sI75
g2006
sI76
g423
sI77
g1839
sI78
g426
sI79
g257
sI80
g970
sI81
g1777
sI82
g2537
sI83
g1831
sI84
g23
sI85
g1881
sI86
g1908
sI87
g2649
sI88
g2271
sI89
g992
sI90
g2139
sI91
g1570
sI92
g293
sI93
g883
sI94
g2417
sI95
g1547
sI96
g247
sI97
g940
sI98
g2705
sI99
g2598
sI100
g560
sI101
g2687
sI102
g365
sI103
g1040
sI104
g509
sI105
g300
sI106
g1091
sI107
g327
sI108
g1043
sI109
g1601
sI110
g2357
sI111
g2439
sI112
g2122
sI113
g1965
sI114
g371
sI115
g1378
sI116
g1084
sI117
g1445
sI118
g2157
sI119
g1370
sI120
g1170
sI121
g2794
sI122
g2224
sI123
g2605
sI124
g1521
sI125
g1742
sI126
g314
sI127
g1986
sI128
g1140
sI129
g2009
sI130
g2543
sI131
g1041
sI132
g250
sI133
g22
sI134
g93
sI135
g884
sI136
g2679
sI137
g2104
sI138
g770
sI139
g246
sI140
g1642
sI141
g1656
sI142
g2494
sI143
g2349
sI144
g2627
sI145
g2549
sI146
g1511
sI147
g583
sI148
g2517
sI149
g1203
sI150
g1980
sI151
g931
sI152
g1596
sI153
g282
sI154
g1873
sI155
g72
sI156
g2017
sI157
g957
sI158
g155
sI159
g2284
sI160
g207
sI161
g1015
sI162
g1600
sI163
g2544
sI164
g1906
sI165
g2579
sI166
g1109
sI167
g613
sI168
g2766
sI169
g1093
sI170
g2046
sI171
g2463
sI172
g2091
sI173
g2810
sI174
g442
sI175
g1722
sI176
g1475
sI177
g1825
sI178
g2708
sI179
g1736
sI180
g2310
sI181
g1028
sI182
g1552
sI183
g630
sI184
g1145
sI185
g836
sI186
g1466
sI187
g46
sI188
g1628
sI189
g1404
sI190
g766
sI191
g2519
sI192
g1187
sI193
g577
sI194
g212
sI195
g1270
sI196
g78
sI197
g1497
sI198
g2343
sI199
g481
sI200
g914
sI201
g1325
sI202
g313
sI203
g2430
sI204
g1702
sI205
g576
sI206
g954
sI207
g404
sI208
g762
sI209
g2502
sI210
g1136
sI211
g15
sI212
g37
sI213
g262
sI214
g1227
sI215
g1063
sI216
g2403
sI217
g45
sI218
g1253
sI219
g2646
sI220
g1081
sI221
g1545
sI222
g430
sI223
g421
sI224
g2799
sI225
g916
sI226
g322
sI227
g1385
sI228
g201
sI229
g1930
sI230
g1815
sI231
g1732
sI232
g19
sI233
g453
sI234
g2568
sI235
g2781
sI236
g2022
sI237
g34
sI238
g2336
sI239
g604
sI240
g2673
sI241
g2523
sI242
g1897
sI243
g1314
sI244
g854
sI245
g1995
sI246
g256
sI247
g1259
sI248
g510
sI249
g1904
sI250
g1011
sI251
g1734
sI252
g140
sI253
g1561
sI254
g1659
sI255
g798
sI256
g1836
sI257
g320
sI258
g2216
sI259
g2102
sI260
g96
sI261
g561
sI262
g353
sI263
g1472
sI264
g2110
sI265
g1543
sI266
g1951
sI267
g2267
sI268
g2155
sI269
g1106
sI270
g783
sI271
g2847
sI272
g1649
sI273
g386
sI274
g449
sI275
g2365
sI276
g1027
sI277
g1863
sI278
g1595
sI279
g1419
sI280
g1263
sI281
g1050
sI282
g393
sI283
g200
sI284
g1075
sI285
g1225
sI286
g214
sI287
g234
sI288
g649
sI289
g470
sI290
g2276
sI291
g1987
sI292
g2465
sI293
g937
sI294
g556
sI295
g1065
sI296
g2838
sI297
g1097
sI298
g306
sI299
g631
sI300
g2448
sI301
g1684
sI302
g2030
sI303
g2184
sI304
g1345
sI305
g1122
sI306
g2749
sI307
g1401
sI308
g482
sI309
g950
sI310
g321
sI311
g133
sI312
g2032
sI313
g224
sI314
g915
sI315
g2489
sI316
g2150
sI317
g227
sI318
g2576
sI319
g1361
sI320
g817
sI321
g107
sI322
g1280
sI323
g1814
sI324
g846
sI325
g1169
sI326
g222
sI327
g1209
sI328
g2288
sI329
g2709
sI330
g928
sI331
g746
sI332
g496
sI333
g1534
sI334
g114
sI335
g86
sI336
g2772
sI337
g1631
sI338
g1034
sI339
g1450
sI340
g2570
sI341
g622
sI342
g2597
sI343
g2645
sI344
g927
sI345
g871
sI346
g702
sI347
g1066
sI348
g209
sI349
g2309
sI350
g2825
sI351
g2515
sI352
g1753
sI353
g1767
sI354
g1506
sI355
g2793
sI356
g2551
sI357
g1683
sI358
g185
sI359
g2049
sI360
g693
sI361
g239
sI362
g1496
sI363
g1523
sI364
g1119
sI365
g727
sI366
g2270
sI367
g455
sI368
g863
sI369
g1939
sI370
g828
sI371
g1108
sI372
g687
sI373
g2200
sI374
g818
sI375
g2362
sI376
g2082
sI377
g1813
sI378
g2115
sI379
g1708
sI380
g1411
sI381
g511
sI382
g538
sI383
g1178
sI384
g2358
sI385
g680
sI386
g1842
sI387
g2771
sI388
g223
sI389
g1183
sI390
g2811
sI391
g2230
sI392
g138
sI393
g994
sI394
g176
sI395
g2019
sI396
g1824
sI397
g235
sI398
g2474
sI399
g1379
sI400
g2626
sI401
g461
sI402
g1693
sI403
g2807
sI404
g1548
sI405
g2114
sI406
g466
sI407
g981
sI408
g14
sI409
g953
sI410
g600
sI411
g1483
sI412
g962
sI413
g2550
sI414
g131
sI415
g1437
sI416
g210
sI417
g2677
sI418
g2324
sI419
g1428
sI420
g1532
sI421
g1772
sI422
g2491
sI423
g1678
sI424
g1390
sI425
g2624
sI426
g1519
sI427
g996
sI428
g2334
sI429
g1803
sI430
g472
sI431
g1303
sI432
g1549
sI433
g1195
sI434
g2739
sI435
g1070
sI436
g1166
sI437
g1052
sI438
g1569
sI439
g1149
sI440
g2131
sI441
g670
sI442
g939
sI443
g2615
sI444
g786
sI445
g1432
sI446
g568
sI447
g2516
sI448
g1383
sI449
g2606
sI450
g1895
sI451
g2186
sI452
g2640
sI453
g2273
sI454
g1617
sI455
g2118
sI456
g1599
sI457
g1902
sI458
g1388
sI459
g966
sI460
g2820
sI461
g659
sI462
g1835
sI463
g2042
sI464
g183
sI465
g1696
sI466
g2512
sI467
g2479
sI468
g1531
sI469
g2449
sI470
g416
sI471
g372
sI472
g860
sI473
g1228
sI474
g1864
sI475
g2250
sI476
g1162
sI477
g2041
sI478
g2843
sI479
g1551
sI480
g2712
sI481
g2355
sI482
g1381
sI483
g493
sI484
g1749
sI485
g2075
sI486
g2407
sI487
g1398
sI488
g2662
sI489
g179
sI490
g1029
sI491
g1207
sI492
g1876
sI493
g359
sI494
g1539
sI495
g1704
sI496
g1256
sI497
g1800
sI498
g1820
sI499
g2257
sI500
g2033
sI501
g1130
sI502
g2608
sI503
g2658
sI504
g2268
sI505
g2345
sI506
g2436
sI507
g2163
sI508
g287
sI509
g1425
sI510
g2675
sI511
g58
sI512
g2835
sI513
g2613
sI514
g1988
sI515
g1935
sI516
g644
sI517
g952
sI518
g888
sI519
g263
sI520
g1292
sI521
g529
sI522
g2361
sI523
g473
sI524
g909
sI525
g186
sI526
g113
sI527
g598
sI528
g403
sI529
g1955
sI530
g1621
sI531
g570
sI532
g2027
sI533
g2246
sI534
g2328
sI535
g747
sI536
g2368
sI537
g2650
sI538
g1371
sI539
g1564
sI540
g2207
sI541
g2780
sI542
g677
sI543
g1387
sI544
g2497
sI545
g1350
sI546
g1929
sI547
g16
sI548
g2458
sI549
g412
sI550
g1396
sI551
g32
sI552
g153
sI553
g667
sI554
g666
sI555
g2151
sI556
g1341
sI557
g2206
sI558
g2821
sI559
g1971
sI560
g1213
sI561
g117
sI562
g2596
sI563
g108
sI564
g2480
sI565
g1838
sI566
g2655
sI567
g1682
sI568
g1315
sI569
g864
sI570
g603
sI571
g1421
sI572
g391
sI573
g1157
sI574
g995
sI575
g515
sI576
g219
sI577
g827
sI578
g1943
sI579
g2839
sI580
g2351
sI581
g502
sI582
g1433
sI583
g1602
sI584
g1741
sI585
g519
sI586
g642
sI587
g1323
sI588
g1830
sI589
g2005
sI590
g2508
sI591
g1338
sI592
g1787
sI593
g1478
sI594
g1699
sI595
g1605
sI596
g2690
sI597
g2329
sI598
g2227
sI599
g2001
sI600
g1431
sI601
g1580
sI602
g2808
sI603
g1641
sI604
g1367
sI605
g308
sI606
g1022
sI607
g1294
sI608
g1972
sI609
g820
sI610
g757
sI611
g1900
sI612
g370
sI613
g277
sI614
g640
sI615
g2805
sI616
g1423
sI617
g1967
sI618
g917
sI619
g1918
sI620
g2506
sI621
g610
sI622
g1679
sI623
g1467
sI624
g102
sI625
g288
sI626
g2400
sI627
g230
sI628
g895
sI629
g1498
sI630
g165
sI631
g1071
sI632
g2740
sI633
g651
sI634
g857
sI635
g739
sI636
g454
sI637
g1508
sI638
g2593
sI639
g2686
sI640
g1386
sI641
g356
sI642
g1505
sI643
g1465
sI644
g633
sI645
g2789
sI646
g926
sI647
g2225
sI648
g2138
sI649
g2477
sI650
g2146
sI651
g424
sI652
g156
sI653
g542
sI654
g1226
sI655
g161
sI656
g1587
sI657
g2275
sI658
g1427
sI659
g347
sI660
g2258
sI661
g1198
sI662
g1603
sI663
g280
sI664
g1037
sI665
g1714
sI666
g2688
sI667
g1384
sI668
g1397
sI669
g2366
sI670
g2181
sI671
g823
sI672
g2112
sI673
g94
sI674
g2533
sI675
g975
sI676
g2814
sI677
g993
sI678
g2243
sI679
g2149
sI680
g174
sI681
g2307
sI682
g756
sI683
g875
sI684
g1415
sI685
g2241
sI686
g922
sI687
g2469
sI688
g775
sI689
g2514
sI690
g2167
sI691
g64
sI692
g238
sI693
g2680
sI694
g1124
sI695
g527
sI696
g435
sI697
g653
sI698
g135
sI699
g20
sI700
g2144
sI701
g2614
sI702
g700
sI703
g333
sI704
g1100
sI705
g2433
sI706
g2478
sI707
g908
sI708
g763
sI709
g688
sI710
g1852
sI711
g532
sI712
g2214
sI713
g504
sI714
g2666
sI715
g310
sI716
g2205
sI717
g1854
sI718
g2788
sI719
g689
sI720
g543
sI721
g2074
sI722
g2644
sI723
g2745
sI724
g495
sI725
g2314
sI726
g2848
sI727
g980
sI728
g178
sI729
g1234
sI730
g2108
sI731
g343
sI732
g2301
sI733
g2427
sI734
g578
sI735
g2008
sI736
g462
sI737
g41
sI738
g2703
sI739
g971
sI740
g979
sI741
g1218
sI742
g432
sI743
g1811
sI744
g2173
sI745
g1611
sI746
g2073
sI747
g833
sI748
g1023
sI749
g103
sI750
g2779
sI751
g242
sI752
g2210
sI753
g349
sI754
g159
sI755
g7
sI756
g2773
sI757
g555
sI758
g1221
sI759
g1281
sI760
g2767
sI761
g849
sI762
g1331
sI763
g728
sI764
g2714
sI765
g2259
sI766
g2462
sI767
g345
sI768
g1541
sI769
g115
sI770
g1574
sI771
g2393
sI772
g244
sI773
g2762
sI774
g2317
sI775
g1769
sI776
g671
sI777
g2633
sI778
g801
sI779
g1672
sI780
g1163
sI781
g2527
sI782
g744
sI783
g2454
sI784
g216
sI785
g1893
sI786
g2656
sI787
g550
sI788
g1766
sI789
g1399
sI790
g790
sI791
g198
sI792
g456
sI793
g1501
sI794
g1045
sI795
g1821
sI796
g324
sI797
g1849
sI798
g2648
sI799
g991
sI800
g1946
sI801
g1333
sI802
g1788
sI803
g2413
sI804
g925
sI805
g1008
sI806
g1047
sI807
g2834
sI808
g898
sI809
g2096
sI810
g1713
sI811
g1487
sI812
g668
sI813
g2695
sI814
g233
sI815
g1153
sI816
g942
sI817
g2698
sI818
g919
sI819
g1518
sI820
g1783
sI821
g296
sI822
g712
sI823
g1688
sI824
g2063
sI825
g1658
sI826
g705
sI827
g771
sI828
g503
sI829
g65
sI830
g2093
sI831
g1664
sI832
g1882
sI833
g2748
sI834
g137
sI835
g1334
sI836
g334
sI837
g1871
sI838
g662
sI839
g2395
sI840
g750
sI841
g1880
sI842
g1089
sI843
g1196
sI844
g2060
sI845
g2775
sI846
g1439
sI847
g2111
sI848
g1220
sI849
g1099
sI850
g1879
sI851
g500
sI852
g513
sI853
g989
sI854
g1731
sI855
g1934
sI856
g2142
sI857
g1638
sI858
g1328
sI859
g2651
sI860
g1374
sI861
g2327
sI862
g784
sI863
g1948
sI864
g2285
sI865
g266
sI866
g1922
sI867
g2470
sI868
g715
sI869
g1754
sI870
g1750
sI871
g1451
sI872
g2312
sI873
g1614
sI874
g1525
sI875
g384
sI876
g1313
sI877
g2741
sI878
g376
sI879
g1752
sI880
g279
sI881
g1913
sI882
g2520
sI883
g1560
sI884
g2109
sI885
g1507
sI886
g90
sI887
g518
sI888
g1463
sI889
g2580
sI890
g1633
sI891
g2735
sI892
g2612
sI893
g506
sI894
g2396
sI895
g1701
sI896
g2850
sI897
g2081
sI898
g647
sI899
g2387
sI900
g806
sI901
g2278
sI902
g2011
sI903
g1490
sI904
g669
sI905
g1828
sI906
g60
sI907
g903
sI908
g638
sI909
g1155
sI910
g2159
sI911
g1082
sI912
g169
sI913
g2384
sI914
g2800
sI915
g1322
sI916
g2554
sI917
g2661
sI918
g1237
sI919
g1938
sI920
g2743
sI921
g2683
sI922
g38
sI923
g2373
sI924
g1020
sI925
g2638
sI926
g2540
sI927
g2240
sI928
g1969
sI929
g517
sI930
g900
sI931
g2736
sI932
g2815
sI933
g580
sI934
g792
sI935
g690
sI936
g558
sI937
g1706
sI938
g723
sI939
g469
sI940
g2177
sI941
g35
sI942
g1677
sI943
g2158
sI944
g419
sI945
g2500
sI946
g2174
sI947
g976
sI948
g2819
sI949
g1297
sI950
g1112
sI951
g2180
sI952
g1017
sI953
g1739
sI954
g1610
sI955
g2029
sI956
g152
sI957
g891
sI958
g241
sI959
g1090
sI960
g2501
sI961
g535
sI962
g2757
sI963
g2038
sI964
g160
sI965
g1324
sI966
g1516
sI967
g2135
sI968
g1556
sI969
g1512
sI970
g2459
sI971
g193
sI972
g119
sI973
g25
sI974
g2272
sI975
g2425
sI976
g1671
sI977
g2617
sI978
g1271
sI979
g2342
sI980
g813
sI981
g278
sI982
g544
sI983
g1963
sI984
g694
sI985
g2706
sI986
g271
sI987
g2534
sI988
g1796
sI989
g742
sI990
g2261
sI991
g1710
sI992
g2589
sI993
g507
sI994
g901
sI995
g381
sI996
g95
sI997
g390
sI998
g2297
sI999
g240
sI1000
g1246
sI1001
g878
sI1002
g2133
sI1003
g50
sI1004
g2836
sI1005
g97
sI1006
g2126
sI1007
g2090
sI1008
g498
sI1009
g2717
sI1010
g162
sI1011
g83
sI1012
g53
sI1013
g2574
sI1014
g485
sI1015
g2376
sI1016
g969
sI1017
g497
sI1018
g2827
sI1019
g1949
sI1020
g2302
sI1021
g1745
sI1022
g724
sI1023
g268
sI1024
g1738
sI1025
g2179
sI1026
g2804
sI1027
g1721
sI1028
g1604
sI1029
g2833
sI1030
g2188
sI1031
g1536
sI1032
g408
sI1033
g1474
sI1034
g332
sI1035
g679
sI1036
g329
sI1037
g1369
sI1038
g1774
sI1039
g520
sI1040
g624
sI1041
g2013
sI1042
g559
sI1043
g1358
sI1044
g619
sI1045
g1608
sI1046
g2379
sI1047
g2610
sI1048
g2277
sI1049
g918
sI1050
g2842
sI1051
g696
sI1052
g2759
sI1053
g935
sI1054
g2363
sI1055
g1310
sI1056
g1104
sI1057
g1242
sI1058
g2399
sI1059
g1989
sI1060
g2643
sI1061
g1193
sI1062
g1740
sI1063
g2769
sI1064
g276
sI1065
g1180
sI1066
g2795
sI1067
g2545
sI1068
g2370
sI1069
g656
sI1070
g822
sI1071
g385
sI1072
g2070
sI1073
g791
sI1074
g866
sI1075
g2156
sI1076
g1725
sI1077
g2308
sI1078
g196
sI1079
g1883
sI1080
g528
sI1081
g48
sI1082
g298
sI1083
g2510
sI1084
g1446
sI1085
g2061
sI1086
g1127
sI1087
g1442
sI1088
g1998
sI1089
g2442
sI1090
g1004
sI1091
g1609
sI1092
g480
sI1093
g2195
sI1094
g326
sI1095
g110
sI1096
g245
sI1097
g2750
sI1098
g2234
sI1099
g2354
sI1100
g2319
sI1101
g681
sI1102
g2415
sI1103
g1357
sI1104
g1746
sI1105
g373
sI1106
g2172
sI1107
g2026
sI1108
g1113
sI1109
g275
sI1110
g84
sI1111
g410
sI1112
g1676
sI1113
g1160
sI1114
g2699
sI1115
g1898
sI1116
g6
sI1117
g2004
sI1118
g2630
sI1119
g1826
sI1120
g2044
sI1121
g524
sI1122
g1632
sI1123
g956
sI1124
g2
sI1125
g2746
sI1126
g1590
sI1127
g1891
sI1128
g1933
sI1129
g840
sI1130
g730
sI1131
g1760
sI1132
g2050
sI1133
g2129
sI1134
g69
sI1135
g1878
sI1136
g2348
sI1137
g1476
sI1138
g388
sI1139
g2113
sI1140
g1616
sI1141
g2318
sI1142
g1992
sI1143
g2183
sI1144
g643
sI1145
g2052
sI1146
g821
sI1147
g252
sI1148
g1114
sI1149
g1730
sI1150
g2798
sI1151
g930
sI1152
g1944
sI1153
g1990
sI1154
g380
sI1155
g1962
sI1156
g2231
sI1157
g999
sI1158
g951
sI1159
g1720
sI1160
g1495
sI1161
g2154
sI1162
g2412
sI1163
g717
sI1164
g492
sI1165
g709
sI1166
g377
sI1167
g2467
sI1168
g707
sI1169
g1219
sI1170
g1202
sI1171
g2460
sI1172
g2466
sI1173
g2266
sI1174
g978
sI1175
g1579
sI1176
g100
sI1177
g2057
sI1178
g1395
sI1179
g934
sI1180
g722
sI1181
g1014
sI1182
g149
sI1183
g767
sI1184
g2127
sI1185
g54
sI1186
g1469
sI1187
g534
sI1188
g2331
sI1189
g1057
sI1190
g409
sI1191
g549
sI1192
g283
sI1193
g2264
sI1194
g337
sI1195
g459
sI1196
g1059
sI1197
g1960
sI1198
g1807
sI1199
g2335
sI1200
g1573
sI1201
g436
sI1202
g111
sI1203
g265
sI1204
g1299
sI1205
g1458
sI1206
g2684
sI1207
g1653
sI1208
g1133
sI1209
g254
sI1210
g1662
sI1211
g10
sI1212
g1418
sI1213
g2521
sI1214
g80
sI1215
g387
sI1216
g837
sI1217
g2389
sI1218
g684
sI1219
g2487
sI1220
g1382
sI1221
g2097
sI1222
g2738
sI1223
g2375
sI1224
g805
sI1225
g1889
sI1226
g816
sI1227
g586
sI1228
g1302
sI1229
g118
sI1230
g1067
sI1231
g1785
sI1232
g1258
sI1233
g1925
sI1234
g2846
sI1235
g894
sI1236
g2344
sI1237
g2676
sI1238
g874
sI1239
g588
sI1240
g523
sI1241
g1780
sI1242
g955
sI1243
g1910
sI1244
g2340
sI1245
g231
sI1246
g2024
sI1247
g2002
sI1248
g2498
sI1249
g625
sI1250
g1823
sI1251
g1517
sI1252
g1654
sI1253
g1983
sI1254
g1342
sI1255
g89
sI1256
g1542
sI1257
g2269
sI1258
g142
sI1259
g305
sI1260
g2153
sI1261
g1414
sI1262
g1244
sI1263
g1032
sI1264
g2481
sI1265
g1131
sI1266
g2582
sI1267
g2359
sI1268
g1806
sI1269
g608
sI1270
g85
sI1271
g2849
sI1272
g2594
sI1273
g3
sI1274
g1042
sI1275
g606
sI1276
g1129
sI1277
g1290
sI1278
g2700
sI1279
g1764
sI1280
g1147
sI1281
g2564
sI1282
g2213
sI1283
g2518
sI1284
g810
sI1285
g490
sI1286
g554
sI1287
g1167
sI1288
g982
sI1289
g1340
sI1290
g720
sI1291
g259
sI1292
g2398
sI1293
g433
sI1294
g2637
sI1295
g2300
sI1296
g1612
sI1297
g2371
sI1298
g627
sI1299
g571
sI1300
g1786
sI1301
g55
sI1302
g307
sI1303
g414
sI1304
g2600
sI1305
g105
sI1306
g2631
sI1307
g1977
sI1308
g1121
sI1309
g581
sI1310
g787
sI1311
g2056
sI1312
g434
sI1313
g566
sI1314
g1953
sI1315
g1624
sI1316
g1973
sI1317
g1110
sI1318
g2187
sI1319
g243
sI1320
g2218
sI1321
g1343
sI1322
g830
sI1323
g1578
sI1324
g2280
sI1325
g1950
sI1326
g2802
sI1327
g1177
sI1328
g658
sI1329
g2575
sI1330
g2451
sI1331
g13
sI1332
g2532
sI1333
g1866
sI1334
g2219
sI1335
g1776
sI1336
g607
sI1337
g2812
sI1338
g1429
sI1339
g896
sI1340
g2483
sI1341
g587
sI1342
g2696
sI1343
g2374
sI1344
g1380
sI1345
g330
sI1346
g616
sI1347
g2581
sI1348
g1559
sI1349
g1533
sI1350
g1141
sI1351
g1657
sI1352
g1735
sI1353
g59
sI1354
g2072
sI1355
g2262
sI1356
g1245
sI1357
g1862
sI1358
g2059
sI1359
g692
sI1360
g2325
sI1361
g525
sI1362
g431
sI1363
g1268
sI1364
g2434
sI1365
g1241
sI1366
g2281
sI1367
g1503
sI1368
g1535
sI1369
g2428
sI1370
g1571
sI1371
g1674
sI1372
g2124
sI1373
g1964
sI1374
g1486
sI1375
g1860
sI1376
g418
sI1377
g2531
sI1378
g1184
sI1379
g1916
sI1380
g1892
sI1381
g396
sI1382
g128
sI1383
g1589
sI1384
g2664
sI1385
g1304
sI1386
g1443
sI1387
g1636
sI1388
g125
sI1389
g1586
sI1390
g657
sI1391
g1173
sI1392
g1010
sI1393
g191
sI1394
g796
sI1395
g1493
sI1396
g5
sI1397
g1581
sI1398
g947
sI1399
g968
sI1400
g1791
sI1401
g1407
sI1402
g2165
sI1403
g1819
sI1404
g2547
sI1405
g785
sI1406
g1884
sI1407
g2086
sI1408
g441
sI1409
g2162
sI1410
g270
sI1411
g2094
sI1412
g420
sI1413
g1391
sI1414
g1593
sI1415
g1068
sI1416
g2178
sI1417
g4
sI1418
g735
sI1419
g1284
sI1420
g1484
sI1421
g199
sI1422
g793
sI1423
g451
sI1424
g574
sI1425
g1959
sI1426
g1402
sI1427
g1420
sI1428
g841
sI1429
g729
sI1430
g2170
sI1431
g487
sI1432
g958
sI1433
g1103
sI1434
g2840
sI1435
g9
sI1436
g776
sI1437
g1266
sI1438
g2652
sI1439
g1797
sI1440
g1036
sI1441
g1634
sI1442
g2563
sI1443
g880
sI1444
g2435
sI1445
g1457
sI1446
g1680
sI1447
g800
sI1448
g1125
sI1449
g1966
sI1450
g2707
sI1451
g2299
sI1452
g2239
sI1453
g960
sI1454
g637
sI1455
g1132
sI1456
g1629
sI1457
g458
sI1458
g1264
sI1459
g2251
sI1460
g843
sI1461
g804
sI1462
g2620
sI1463
g1400
sI1464
g1718
sI1465
g66
sI1466
g1572
sI1467
g713
sI1468
g1481
sI1469
g704
sI1470
g551
sI1471
g1260
sI1472
g985
sI1473
g2525
sI1474
g967
sI1475
g1700
sI1476
g2552
sI1477
g1306
sI1478
g1058
sI1479
g1991
sI1480
g2765
sI1481
g530
sI1482
g789
sI1483
g1073
sI1484
g26
sI1485
g1575
sI1486
g1078
sI1487
g1625
sI1488
g1248
sI1489
g467
sI1490
g397
sI1491
g2053
sI1492
g2394
sI1493
g1479
sI1494
g1840
sI1495
g1179
sI1496
g2298
sI1497
g1805
sI1498
g612
sI1499
g1021
sI1500
g299
sI1501
g2037
sI1502
g1970
sI1503
g2660
sI1504
g943
sI1505
g2101
sI1506
g1855
sI1507
g1186
sI1508
g553
sI1509
g399
sI1510
g2561
sI1511
g887
sI1512
g853
sI1513
g151
sI1514
g2191
sI1515
g1344
sI1516
g1182
sI1517
g557
sI1518
g1637
sI1519
g253
sI1520
g1295
sI1521
g2067
sI1522
g2665
sI1523
g777
sI1524
g476
sI1525
g2777
sI1526
g2051
sI1527
g2482
sI1528
g1974
sI1529
g1872
sI1530
g755
sI1531
g1393
sI1532
g1924
sI1533
g628
sI1534
g1448
sI1535
g1094
sI1536
g1336
sI1537
g2221
sI1538
g139
sI1539
g2555
sI1540
g1582
sI1541
g202
sI1542
g2193
sI1543
g2283
sI1544
g1307
sI1545
g1520
sI1546
g2505
sI1547
g465
sI1548
g204
sI1549
g618
sI1550
g2058
sI1551
g2713
sI1552
g2511
sI1553
g675
sI1554
g1550
sI1555
g1850
sI1556
g1473
sI1557
g1054
sI1558
g1597
sI1559
g599
sI1560
g2333
sI1561
g834
sI1562
g2464
sI1563
g1249
sI1564
g2306
sI1565
g2529
sI1566
g2761
sI1567
g42
sI1568
g582
sI1569
g1007
sI1570
g112
sI1571
g2784
sI1572
g676
sI1573
g1016
sI1574
g597
sI1575
g1161
sI1576
g1126
sI1577
g997
sI1578
g751
sI1579
g477
sI1580
g1652
sI1581
g1095
sI1582
g761
sI1583
g2222
sI1584
g809
sI1585
g1979
sI1586
g2616
sI1587
g1480
sI1588
g899
sI1589
g1627
sI1590
g698
sI1591
g2360
sI1592
g2247
sI1593
g2068
sI1594
g2356
sI1595
g1376
sI1596
g1758
sI1597
g2423
sI1598
g91
sI1599
g2822
sI1600
g206
sI1601
g2635
sI1602
g851
sI1603
g1146
sI1604
g1351
sI1605
g802
sI1606
g1737
sI1607
g1247
sI1608
g2279
sI1609
g1477
sI1610
g237
sI1611
g2692
sI1612
g594
sI1613
g1128
sI1614
g639
sI1615
g645
sI1616
g290
sI1617
g1757
sI1618
g447
sI1619
g2229
sI1620
g144
sI1621
g383
sI1622
g11
sI1623
g392
sI1624
g484
sI1625
g617
sI1626
g650
sI1627
g1941
sI1628
g2076
sI1629
g862
sI1630
g815
sI1631
g850
sI1632
g2322
sI1633
g1424
sI1634
g1773
sI1635
g163
sI1636
g1553
sI1637
g126
sI1638
g2542
sI1639
g2443
sI1640
g1118
sI1641
g1199
sI1642
g736
sI1643
g1799
sI1644
g986
sI1645
g748
sI1646
g655
sI1647
g2201
sI1648
g2538
sI1649
g564
sI1650
g832
sI1651
g2567
sI1652
g2486
sI1653
g856
sI1654
g2190
sI1655
g317
sI1656
g289
sI1657
g1316
sI1658
g2031
sI1659
g2141
sI1660
g1012
sI1661
g531
sI1662
g1252
sI1663
g1694
sI1664
g2629
sI1665
g68
sI1666
g1768
sI1667
g2003
sI1668
g1152
sI1669
g1834
sI1670
g1630
sI1671
g2404
sI1672
g533
sI1673
g701
sI1674
g1293
sI1675
g1875
sI1676
g2562
sI1677
g2694
sI1678
g362
sI1679
g795
sI1680
g654
sI1681
g2507
sI1682
g913
sI1683
g944
sI1684
g1208
sI1685
g2405
sI1686
g1619
sI1687
g2603
sI1688
g1319
sI1689
g302
sI1690
g2590
sI1691
g2642
sI1692
g2232
sI1693
g923
sI1694
g835
sI1695
g1142
sI1696
g592
sI1697
g187
sI1698
g2488
sI1699
g1724
sI1700
g1051
sI1701
g1537
sI1702
g249
sI1703
g1598
sI1704
g1024
sI1705
g575
sI1706
g2316
sI1707
g483
sI1708
g358
sI1709
g2143
sI1710
g2228
sI1711
g1717
sI1712
g711
sI1713
g1827
sI1714
g2263
sI1715
g733
sI1716
g1648
sI1717
g1365
sI1718
g972
sI1719
g1914
sI1720
g1643
sI1721
g1229
sI1722
g2171
sI1723
g339
sI1724
g2830
sI1725
g1405
sI1726
g1853
sI1727
g1982
sI1728
g936
sI1729
g1239
sI1730
g920
sI1731
g395
sI1732
g1661
sI1733
g1903
sI1734
g2422
sI1735
g70
sI1736
g1729
sI1737
g636
sI1738
g1817
sI1739
g1792
sI1740
g683
sI1741
g2390
sI1742
g1890
sI1743
g2338
sI1744
g2659
sI1745
g2080
sI1746
g2274
sI1747
g501
sI1748
g1200
sI1749
g2215
sI1750
g1723
sI1751
g1759
sI1752
g425
sI1753
g2421
sI1754
g1668
sI1755
g1039
sI1756
g1261
sI1757
g673
sI1758
g364
sI1759
g1584
sI1760
g2573
sI1761
g921
sI1762
g725
sI1763
g2145
sI1764
g261
sI1765
g2718
sI1766
g2758
sI1767
g2601
sI1768
g799
sI1769
g1899
sI1770
g1452
sI1771
g184
sI1772
g1191
sI1773
g1001
sI1774
g31
sI1775
g1565
sI1776
g614
sI1777
g2701
sI1778
g881
sI1779
g2530
sI1780
g2134
sI1781
g2711
sI1782
g848
sI1783
g773
sI1784
g1269
sI1785
g8
sI1786
g2609
sI1787
g2350
sI1788
g2595
sI1789
g402
sI1790
g2125
sI1791
g635
sI1792
g749
sI1793
g368
sI1794
g2233
sI1795
g1216
sI1796
g2685
sI1797
g415
sI1798
g893
sI1799
g154
sI1800
g2377
sI1801
g2622
sI1802
g1454
sI1803
g2182
sI1804
g2085
sI1805
g2099
sI1806
g304
sI1807
g344
sI1808
g215
sI1809
g2504
sI1810
g1555
sI1811
g1233
sI1812
g1687
sI1813
g1663
sI1814
g1613
sI1815
g1858
sI1816
g938
sI1817
g2420
sI1818
g2682
sI1819
g963
sI1820
g626
sI1821
g2341
sI1822
g1406
sI1823
g2742
sI1824
g945
sI1825
g2828
sI1826
g1274
sI1827
g1999
sI1828
g2566
sI1829
g1606
sI1830
g710
sI1831
g319
sI1832
g1761
sI1833
g437
sI1834
g2383
sI1835
g269
sI1836
g27
sI1837
g593
sI1838
g794
sI1839
g2809
sI1840
g463
sI1841
g660
sI1842
g1459
sI1843
g505
sI1844
g446
sI1845
g1665
sI1846
g1540
sI1847
g258
sI1848
g1352
sI1849
g2755
sI1850
g12
sI1851
g1640
sI1852
g301
sI1853
g2792
sI1854
g2385
sI1855
g2823
sI1856
g1886
sI1857
g2832
sI1858
g400
sI1859
g768
sI1860
g468
sI1861
g1743
sI1862
g2457
sI1863
g844
sI1864
g661
sI1865
g1311
sI1866
g2105
sI1867
g1620
sI1868
g1291
sI1869
g1887
sI1870
g522
sI1871
g2437
sI1872
g674
sI1873
g2147
sI1874
g1332
sI1875
g2204
sI1876
g2211
sI1877
g2303
sI1878
g634
sI1879
g2693
sI1880
g325
sI1881
g1286
sI1882
g2040
sI1883
g1
sI1884
g685
sI1885
g1176
sI1886
g1327
sI1887
g1243
sI1888
g1622
sI1889
g2282
sI1890
g601
sI1891
g141
sI1892
g1530
sI1893
g406
sI1894
g188
sI1895
g171
sI1896
g2079
sI1897
g1189
sI1898
g1588
sI1899
g2831
sI1900
g2845
sI1901
g49
sI1902
g521
sI1903
g2591
sI1904
g1062
sI1905
g294
sI1906
g2602
sI1907
g1392
sI1908
g1847
sI1909
g2381
sI1910
g1148
sI1911
g869
sI1912
g2066
sI1913
g2426
sI1914
g932
sI1915
g1993
sI1916
g1667
sI1917
g2734
sI1918
g1231
sI1919
g394
sI1920
g348
sI1921
g2077
sI1922
g579
sI1923
g2446
sI1924
g731
sI1925
g2572
sI1926
g1267
sI1927
g1626
sI1928
g2235
sI1929
g445
sI1930
g221
sI1931
g1300
sI1932
g62
sI1933
g1394
sI1934
g595
sI1935
g2722
sI1936
g1159
sI1937
g2720
sI1938
g494
sI1939
g1868
sI1940
g2704
sI1941
g285
sI1942
g167
sI1943
g867
sI1944
g127
sI1945
g567
sI1946
g2419
sI1947
g1087
sI1948
g2164
sI1949
g1845
sI1950
g2339
sI1951
g2586
sI1952
g907
sI1953
g740
sI1954
g51
sI1955
g2315
sI1956
g236
sI1957
g2541
sI1958
g346
sI1959
g2441
sI1960
g56
sI1961
g565
sI1962
g781
sI1963
g1079
sI1964
g147
sI1965
g2768
sI1966
g1957
sI1967
g2364
sI1968
g1339
sI1969
g1150
sI1970
g1289
sI1971
g1098
sI1972
g2199
sI1973
g838
sI1974
g1107
sI1975
g646
sI1976
g1928
sI1977
g753
sI1978
g2320
sI1979
g1562
sI1980
g585
sI1981
g1583
sI1982
g2047
sI1983
g2106
sI1984
g2553
sI1985
g1756
sI1986
g417
sI1987
g949
sI1988
g2010
sI1989
g1278
sI1990
g197
sI1991
g1005
sI1992
g489
sI1993
g1770
sI1994
g2453
sI1995
g858
sI1996
g63
sI1997
g452
sI1998
g2599
sI1999
g779
sI2000
g1143
sI2001
g75
sI2002
g611
sI2003
g2732
sI2004
g180
sI2005
g548
sI2006
g67
sI2007
g2731
sI2008
g998
sI2009
g2618
sI2010
g807
sI2011
g1185
sI2012
g1647
sI2013
g1164
sI2014
g2321
sI2015
g1359
sI2016
g2103
sI2017
g2397
sI2018
g2212
sI2019
g1205
sI2020
g788
sI2021
g464
sI2022
g988
sI2023
g1285
sI2024
g2468
sI2025
g745
sI2026
g1685
sI2027
g2841
sI2028
g1329
sI2029
g1859
sI2030
g873
sI2031
g1744
sI2032
g2411
sI2033
g1135
sI2034
g1464
sI2035
g829
sI2036
g303
sI2037
g2346
sI2038
g1841
sI2039
g1116
sI2040
g2095
sI2041
g1896
sI2042
g1563
sI2043
g870
sI2044
g2388
sI2045
g2416
sI2046
g354
sI2047
g1846
sI2048
g699
sI2049
g1961
sI2050
g157
sI2051
g541
sI2052
g2647
sI2053
g552
sI2054
g1829
sI2055
g1775
sI2056
g2588
sI2057
g2791
sI2058
g1733
sI2059
g961
sI2060
g1576
sI2061
g964
sI2062
g2289
sI2063
g1455
sI2064
g2817
sI2065
g172
sI2066
g116
sI2067
g407
sI2068
g2710
sI2069
g1206
sI2070
g904
sI2071
g623
sI2072
g1254
sI2073
g450
sI2074
g44
sI2075
g2813
sI2076
g2730
sI2077
g780
sI2078
g706
sI2079
g1461
sI2080
g2715
sI2081
g589
sI2082
g2337
sI2083
g366
sI2084
g1217
sI2085
g1064
sI2086
g2447
sI2087
g1781
sI2088
g1168
sI2089
g1019
sI2090
g714
sI2091
g629
sI2092
g2021
sI2093
g1790
sI2094
g192
sI2095
g1812
sI2096
g40
sI2097
g2055
sI2098
g1747
sI2099
g545
sI2100
g1002
sI2101
g1958
sI2102
g2296
sI2103
g331
sI2104
g759
sI2105
g2783
sI2106
g211
sI2107
g2513
sI2108
g726
sI2109
g2476
sI2110
g2753
sI2111
g1117
sI2112
g1994
sI2113
g2632
sI2114
g697
sI2115
g1257
sI2116
g1165
sI2117
g596
sI2118
g106
sI2119
g1076
sI2120
g2382
sI2121
g2092
sI2122
g2369
sI2123
g2414
sI2124
g367
sI2125
g2062
sI2126
g1522
sI2127
g719
sI2128
g1822
sI2129
g1952
sI2130
g429
sI2131
g248
sI2132
g1810
sI2133
g1491
sI2134
g315
sI2135
g2484
sI2136
g1048
sI2137
g57
sI2138
g1504
sI2139
g2639
sI2140
g1851
sI2141
g2431
sI2142
g1308
sI2143
g374
sI2144
g352
sI2145
g2130
sI2146
g933
sI2147
g232
sI2148
g92
sI2149
g1156
sI2150
g987
sI2151
g2208
sI2152
g1947
sI2153
g175
sI2154
g1441
sI2155
g2054
sI2156
g1726
sI2157
g1978
sI2158
g1782
sI2159
g1494
sI2160
g1975
sI2161
g1265
sI2162
g260
sI2163
g743
sI2164
g47
sI2165
g98
sI2166
g1499
sI2167
g1204
sI2168
g1651
sI2169
g2619
sI2170
g2401
sI2171
g778
sI2172
g2198
sI2173
g1544
sI2174
g2816
sI2175
g208
sI2176
g1362
sI2177
g1585
sI2178
g2194
sI2179
g2607
sI2180
g1318
sI2181
g190
sI2182
g475
sI2183
g1528
sI2184
g1309
sI2185
g516
sI2186
g741
sI2187
g948
sI2188
g2565
sI2189
g1857
sI2190
g1681
sI2191
g691
sI2192
g2546
sI2193
g295
sI2194
g855
sI2195
g1348
sI2196
g1920
sI2197
g1607
sI2198
g411
sI2199
g2716
sI2200
g1279
sI2201
g2844
sI2202
g1954
sI2203
g2018
sI2204
g2787
sI2205
g1013
sI2206
g267
sI2207
g2496
sI2208
g1438
sI2209
g2571
sI2210
g754
sI2211
g2121
sI2212
g2669
sI2213
g1816
sI2214
g2291
sI2215
g1273
sI2216
g2290
sI2217
g312
sI2218
g2473
sI2219
g892
sI2220
g273
sI2221
g1053
sI2222
g1482
sI2223
g1635
sI2224
g143
sI2225
g401
sI2226
g341
sI2227
g905
sI2228
g1639
sI2229
g2751
sI2230
g1468
sI2231
g1666
sI2232
g2569
sI2233
g2509
sI2234
g2035
sI2235
g170
sI2236
g2023
sI2237
g1675
sI2238
g546
sI2239
g924
sI2240
g1296
sI2241
g2653
sI2242
g2445
sI2243
g1330
sI2244
g2065
sI2245
g1456
sI2246
g1255
sI2247
g1885
sI2248
g808
sI2249
g1250
sI2250
g1088
sI2251
g2313
sI2252
g18
sI2253
g682
sI2254
g378
sI2255
g1120
sI2256
g1230
sI2257
g536
sI2258
g2175
sI2259
g2671
sI2260
g2025
sI2261
g2691
sI2262
g1083
sI2263
g2778
sI2264
g1389
sI2265
g1670
sI2266
g2226
sI2267
g2440
sI2268
g2292
sI2269
g1901
sI2270
g2332
sI2271
g652
sI2272
g2100
sI2273
g1282
sI2274
g2253
sI2275
g405
sI2276
g323
sI2277
g2438
sI2278
g194
sI2279
g1349
sI2280
g2352
sI2281
g1232
sI2282
g1009
sI2283
g1018
sI2284
g2372
sI2285
g621
sI2286
g2120
sI2287
g203
sI2288
g2107
sI2289
g1789
sI2290
g1211
sI2291
g1102
sI2292
g2806
sI2293
g81
sI2294
g1262
sI2295
g1778
sI2296
g2408
sI2297
g2136
sI2298
g2471
sI2299
g2089
sI2300
g1513
sI2301
g338
sI2302
g865
sI2303
g2140
sI2304
g1092
sI2305
g1158
sI2306
g1856
sI2307
g1801
sI2308
g2535
sI2309
g2176
sI2310
g882
sI2311
g1444
sI2312
g663
sI2313
g1697
sI2314
g1287
sI2315
g1514
sI2316
g1956
sI2317
g1172
sI2318
g1779
sI2319
g1719
sI2320
g703
sI2321
g1144
sI2322
g2287
sI2323
g2674
sI2324
g2667
sI2325
g166
sI2326
g195
sI2327
g526
sI2328
g2785
sI2329
g2587
sI2330
g769
sI2331
g2192
sI2332
g30
sI2333
g255
sI2334
g2119
sI2335
g389
sI2336
g2733
sI2337
g1288
sI2338
g1615
sI2339
g2672
sI2340
g1025
sI2341
g2668
sI2342
g886
sI2343
g1154
sI2344
g181
sI2345
g1748
sI2346
g1509
sI2347
g2161
sI2348
g292
sI2349
g2242
sI2350
g1235
sI2351
g1151
sI2352
g615
sI2353
g1031
sI2354
g428
sI2355
g1190
sI2356
g2039
sI2357
g2418
sI2358
g448
sI2359
g539
sI2360
g2293
sI2361
g361
sI2362
g79
sI2363
g148
sI2364
g984
sI2365
g1240
sI2366
g897
sI2367
g2803
sI2368
g2196
sI2369
g2444
sI2370
g2326
sI2371
g1223
sI2372
g2160
sI2373
g2790
sI2374
g2392
sI2375
g1877
sI2376
g1765
sI2377
g716
sI2378
g2495
sI2379
g1837
sI2380
g2557
sI2381
g2020
sI2382
g2493
sI2383
g824
sI2384
g438
sI2385
g2763
sI2386
g1434
sI2387
g1931
sI2388
g1568
sI2389
g695
sI2390
g2078
sI2391
g826
sI2392
g2584
sI2393
g879
sI2394
g1917
sI2395
g444
sI2396
g2132
sI2397
g1224
sI2398
g104
sI2399
g488
sI2400
g2801
sI2401
g1171
sI2402
g2252
sI2403
g1927
sI2404
g2604
sI2405
g2719
sI2406
g479
sI2407
g36
sI2408
g1793
sI2409
g1591
sI2410
g814
sI2411
g1055
sI2412
g1915
sI2413
g379
sI2414
g440
sI2415
g1755
sI2416
g965
sI2417
g859
sI2418
g1558
sI2419
g177
sI2420
g1711
sI2421
g2548
sI2422
g1728
sI2423
g1175
sI2424
g1354
sI2425
g2723
sI2426
g74
sI2427
g1795
sI2428
g1502
sI2429
g912
sI2430
g189
sI2431
g39
sI2432
g765
sI2433
g2536
sI2434
g2697
sI2435
g1804
sI2436
g852
sI2437
g77
sI2438
g2526
sI2439
g721
sI2440
g1527
sI2441
g868
sI2442
g1236
sI2443
g2166
sI2444
g1715
sI2445
g732
sI2446
g2391
sI2447
g2367
sI2448
g1449
sI2449
g1409
sI2450
g422
sI2451
g1026
sI2452
g2654
sI2453
g1485
sI2454
g2764
sI2455
g251
sI2456
g512
sI2457
g2256
sI2458
g2744
sI2459
g1762
sI2460
g1644
sI2461
g782
sI2462
g641
sI2463
g590
sI2464
g2578
sI2465
g2670
sI2466
g357
sI2467
g2461
sI2468
g911
sI2469
g1802
sI2470
g1870
sI2471
g1134
sI2472
g1936
sI2473
g2452
sI2474
g2084
sI2475
g890
sI2476
g1909
sI2477
g2045
sI2478
g2014
sI2479
g665
sI2480
g2123
sI2481
g1049
sI2482
g1194
sI2483
g2016
sI2484
g2524
sI2485
g2625
sI2486
g1650
sI2487
g73
sI2488
g2837
sI2489
g2137
sI2490
g734
sI2491
g2432
sI2492
g1832
sI2493
g2747
sI2494
g2255
sI2495
g2378
sI2496
g1510
sI2497
g1373
sI2498
g1360
sI2499
g1843
sI2500
g460
sI2501
g1305
sI2502
g2702
sI2503
g1492
sI2504
g664
sI2505
g146
sI2506
g540
sI2507
g1867
sI2508
g413
sI2509
g1844
sI2510
g737
sI2511
g350
sI2512
g1529
sI2513
g1809
sI2514
g2410
sI2515
g1192
sI2516
g351
sI2517
g1056
sI2518
g336
sI2519
g2754
sI2520
g2455
sI2521
g1471
sI2522
g1526
sI2523
g1923
sI2524
g563
sI2525
g2007
sI2526
g572
sI2527
g764
sI2528
g355
sI2529
g1669
sI2530
g1940
sI2531
g1623
sI2532
g1703
sI2533
g101
sI2534
g29
sI2535
g2295
sI2536
g1686
sI2537
g1524
sI2538
g1212
sI2539
g2818
sI2540
g877
sI2541
g1430
sI2542
g457
sI2543
g316
sI2544
g889
sI2545
g573
sI2546
g738
sI2547
g205
sI2548
g1003
sI2549
g1346
sI2550
g1038
sI2551
g2406
sI2552
g1072
sI2553
g1727
sI2554
g1911
sI2555
g2311
sI2556
g2528
sI2557
g122
sI2558
g2028
sI2559
g281
sI2560
g1705
sI2561
g2249
sI2562
g547
sI2563
g291
sI2564
g2064
sI2565
g1074
sI2566
g1080
sI2567
g168
sI2568
g2244
sI2569
g990
sI2570
g2083
sI2571
g2559
sI2572
g803
sI2573
g648
sI2574
g134
sI2575
g2503
sI2576
g2409
sI2577
g902
sI2578
g1356
sI2579
g861
sI2580
g1174
sI2581
g2429
sI2582
g1937
sI2583
g2774
sI2584
g1655
sI2585
g2499
sI2586
g226
sI2587
g2098
sI2588
g1861
sI2589
g1997
sI2590
g129
sI2591
g1848
sI2592
g2069
sI2593
g61
sI2594
g2245
sI2595
g1894
sI2596
g130
sI2597
g2168
sI2598
g839
sI2599
g24
sI2600
g1926
sI2601
g164
sI2602
g1283
sI2603
g1594
sI2604
g286
sI2605
g1353
sI2606
g620
sI2607
g514
sI2608
g1123
sI2609
g2286
sI2610
g1691
sI2611
g1372
sI2612
g120
sI2613
g398
sI2614
g1709
sI2615
g311
sI2616
g1060
sI2617
g88
sI2618
g1784
sI2619
g1968
sI2620
g2402
sI2621
g1214
sI2622
g2305
sI2623
g218
sI2624
g1210
sI2625
g1698
sI2626
g1818
sI2627
g2577
sI2628
g2636
sI2629
g2323
sI2630
g941
sI2631
g369
sI2632
g1985
sI2633
g1945
sI2634
g1592
sI2635
g929
sI2636
g2737
sI2637
g2611
sI2638
g774
sI2639
g76
sI2640
g229
sI2641
g2724
sI2642
g2522
sI2643
g1105
sI2644
g1515
sI2645
g328
sI2646
g2237
sI2647
g2663
sI2648
g2036
sI2649
g2189
sI2650
g1238
sI2651
g1412
sI2652
g2223
sI2653
g1422
sI2654
g340
sI2655
g360
sI2656
g2641
sI2657
g2776
sI2658
g2071
sI2659
g1500
sI2660
g109
sI2661
g819
sI2662
g2116
sI2663
g474
sI2664
g2634
sI2665
g1363
sI2666
g906
sI2667
g2726
sI2668
g1188
sI2669
g1416
sI2670
g1030
sI2671
g1689
sI2672
g983
sI2673
g2728
sI2674
g2248
sI2675
g1763
sI2676
g335
sI2677
g876
sI2678
g1000
sI2679
g1488
sI2680
g33
sI2681
g1061
sI2682
g1337
sI2683
g382
sI2684
g173
sI2685
g1470
sI2686
g2556
sI2687
g1695
sI2688
g43
sI2689
g1085
sI2690
g1044
sI2691
g1321
sI2692
g1403
sI2693
g2450
sI2694
g124
sI2695
g2485
sI2696
g1976
sI2697
g2117
sI2698
g508
sI2699
g1410
sI2700
g2128
sI2701
g1942
sI2702
g2560
sI2703
g2729
sI2704
g1546
sI2705
g2203
sI2706
g2220
sI2707
g1436
sI2708
g427
sI2709
g772
sI2710
g1086
sI2711
g1907
sI2712
g1645
sI2713
g2492
sI2714
g2197
sI2715
g752
sI2716
g2202
sI2717
g52
sI2718
g1408
sI2719
g1794
sI2720
g99
sI2721
g150
sI2722
g2558
sI2723
g318
sI2724
g977
sI2725
g1417
sI2726
g1921
sI2727
g1808
sI2728
g2424
sI2729
g2824
sI2730
g121
sI2731
g2456
sI2732
g87
sI2733
g1096
sI2734
g2304
sI2735
g1660
sI2736
g760
sI2737
g2015
sI2738
g2209
sI2739
g1272
sI2740
g2148
sI2741
g1006
sI2742
g1366
sI2743
g1138
sI2744
g845
sI2745
g1566
sI2746
g2583
sI2747
g2472
sI2748
g2169
sI2749
g82
sI2750
g1888
sI2751
g1646
sI2752
g2217
sI2753
g2238
sI2754
g2623
sI2755
g708
sI2756
g2260
sI2757
g145
sI2758
g1046
sI2759
g1618
sI2760
g1996
sI2761
g1577
sI2762
g2000
sI2763
g1453
sI2764
g2826
sI2765
g2386
sI2766
g1489
sI2767
g1413
sI2768
g2797
sI2769
g17
sI2770
g2689
sI2771
g1301
sI2772
g2048
sI2773
g182
sI2774
g1276
sI2775
g363
sI2776
g228
sI2777
g1673
sI2778
g1538
sI2779
g1368
sI2780
g605
sI2781
g1035
sI2782
g1326
sI2783
g2760
sI2784
g220
sI2785
g1181
sI2786
g1111
sI2787
g1460
sI2788
g1557
sI2789
g2294
sI2790
g1833
sI2791
g1981
sI2792
g272
sI2793
g2678
sI2794
g562
sI2795
g758
sI2796
g2725
sI2797
g959
sI2798
g2756
sI2799
g1033
sI2800
g2829
sI2801
g1347
sI2802
g1869
sI2803
g1554
sI2804
g1905
sI2805
g1440
sI2806
g297
sI2807
g2254
sI2808
g2043
sI2809
g1426
sI2810
g274
sI2811
g1919
sI2812
g2621
sI2813
g213
sI2814
g718
sI2815
g1137
sI2816
g1139
sI2817
g1462
sI2818
g2585
sI2819
g678
sI2820
g158
sI2821
g123
sI2822
g2034
sI2823
g2782
sI2824
g1798
sI2825
g2353
sI2826
g443
sI2827
g1320
sI2828
g2475
sI2829
g910
sI2830
g831
sI2831
g672
sI2832
g1364
sI2833
g2539
sI2834
g2770
sI2835
g609
sI2836
g2012
sI2837
g217
sI2838
g1751
sI2839
g812
sI2840
g1874
sI2841
g284
sI2842
g2752
sI2843
g2592
sI2844
g1447
sI2845
g1712
sI2846
g21
sI2847
g1377
sI2848
g2490
sI2849
g2796
sI2850
g1335
s(dp2852
S'mfrw'
p2853
I675
sS'chandan16028'
p2854
I564
sS'Sm'
p2855
I392
sS'Bhaskarverma725'
p2856
I88
sS'AniruddhAggarwal'
p2857
I41
sS'Apoorv'
p2858
I58
sS'Raghav'
p2859
I287
sS'sumit13111'
p2860
I868
sS'Mr.CA005'
p2861
I225
sS'nikhil13067'
p2862
I707
sS'Switi'
p2863
I409
sS'raghav16179'
p2864
I758
sS'Prakashb'
p2865
I271
sS'Satyam choudhary'
p2866
I353
sS'Pandeyji'
p2867
I263
sS'anushka16134'
p2868
I516
sS'Himanshi'
p2869
I161
sS'rajdeep15051'
p2870
I770
sS'Gitasharma92'
p2871
I150
sS'Guruji_Deadpool'
p2872
I153
sS'ved'
p2873
I902
sS'Utkarsh'
p2874
I423
sS'Avadh'
p2875
I78
sS'Darthcoder'
p2876
I114
sS'acckoul'
p2877
I470
sS'YuvraJ Sharma'
p2878
I453
sS'Arun Kumar Gupta'
p2879
I67
sS'rambirsingh'
p2880
I777
sS'shivishka98'
p2881
I839
sS'Sunita'
p2882
I402
sS'Manveer__Rana'
p2883
I216
sS'Shanky'
p2884
I362
sS'vipul16117'
p2885
I910
sS'Neera'
p2886
I251
sS'Ashish16021'
p2887
I72
sS'Zirgham '
p2888
I454
sS'Shubh0493'
p2889
I380
sS'piushgoyal'
p2890
I733
sS'Venu'
p2891
I434
sS'Bhuwan Pathak'
p2892
I91
sS'anant3110'
p2893
I500
sS'satyajeet1968'
p2894
I817
sS'agarwal_a'
p2895
I481
sS'Gita'
p2896
I148
sS'Divya95'
p2897
I134
sS'Hina '
p2898
I164
sS'tushar'
p2899
I887
sS'rashi.soni'
p2900
I781
sS'rajeevjoshi'
p2901
I771
sS'mohd sarim'
p2902
I680
sS'mjacob'
p2903
I677
sS'Neetu Singh'
p2904
I254
sS'Cheerag Duggal '
p2905
I101
sS'Aditipathak'
p2906
I16
sS'pragya16067'
p2907
I738
sS'sangeeta65'
p2908
I813
sS'lavanya'
p2909
I645
sS'Arushi_kapoor'
p2910
I68
sS'Mudit Goel'
p2911
I228
sS'Bhaskar@123'
p2912
I87
sS'anujrawal'
p2913
I514
sS'ramya'
p2914
I778
sS'raghavj'
p2915
I759
sS'Jatin_aggarwal'
p2916
I170
sS'nishantadhikari00'
p2917
I715
sS'bipul'
p2918
I552
sS'sejal'
p2919
I826
sS'11megha89'
p2920
I1
sS'Sanjiv'
p2921
I344
sS'Pramod_Agg'
p2922
I272
sS'Rich'
p2923
I309
sS'Arjun13022'
p2924
I63
sS'siddgorey'
p2925
I852
sS'Akshat'
p2926
I29
sS'mananwason'
p2927
I656
sS'aishwarya14130'
p2928
I484
sS'nakul16168'
p2929
I693
sS'abc'
p2930
I460
sS'vishuks'
p2931
I915
sS'Satpal '
p2932
I351
sS'Bajajsushil'
p2933
I84
sS'Sarang'
p2934
I348
sS'Nilesh'
p2935
I257
sS'Kunal'
p2936
I189
sS'Anil Kumar Sharma '
p2937
I37
sS's111'
p2938
I799
sS'yagami_kunal'
p2939
I919
sS'sandy1234'
p2940
I811
sS'userX1'
p2941
I890
sS'Cheerag '
p2942
I99
sS'pardeep15043'
p2943
I728
sS'bharat'
p2944
I548
sS'avinash'
p2945
I539
sS'deepanshu16236'
p2946
I579
sS'disha arora'
p2947
I588
sS'seemasood71'
p2948
I825
sS'Roshan Ajith '
p2949
I324
sS'Shravika'
p2950
I373
sS'nipun.birla'
p2951
I711
sS'anjaniarnav'
p2952
I503
sS'rachna10'
p2953
I757
sS'ranajoy'
p2954
I779
sS'Lakshya'
p2955
I193
sS'Naveenchd'
p2956
I247
sS'Mohd Kashif'
p2957
I222
sS'Arun'
p2958
I65
sS'mudit16057'
p2959
I684
sS'Deepu singh'
p2960
I123
sS'ampk349'
p2961
I498
sS'shaifu'
p2962
I829
sS'puruvir16258'
p2963
I749
sS'Shilpa'
p2964
I368
sS'ajit'
p2965
I486
sS'CoolSatyam'
p2966
I108
sS'piku4818'
p2967
I732
sS'Saquib'
p2968
I347
sS'Nbhatia'
p2969
I250
sS'Gunkirat'
p2970
I152
sS'nischay13144'
p2971
I712
sS'anubha'
p2972
I511
sS'Ashish07'
p2973
I71
sS'madhur15030'
p2974
I652
sS'himani15018'
p2975
I608
sS'achetan40'
p2976
I472
sS'Anudita'
p2977
I53
sS'arunp'
p2978
I527
sS'norwegianbanarasi'
p2979
I718
sS'nikhil'
p2980
I706
sS'sourabhpjain'
p2981
I863
sS'Ankur '
p2982
I46
sS'Raulgarg'
p2983
I306
sS'Ritu'
p2984
I319
sS'vanshika16276'
p2985
I898
sS'ishakalra'
p2986
I617
sS'sonika'
p2987
I861
sS'bhudev'
p2988
I551
sS'Richa Verma'
p2989
I312
sS'shambhavi'
p2990
I831
sS'sanjay'
p2991
I814
sS'iamaryananand'
p2992
I614
sS'anshul'
p2993
I509
sS'arsh25'
p2994
I524
sS'yajur16121'
p2995
I920
sS'Asad'
p2996
I69
sS'Shivkseth'
p2997
I372
sS'saurabh'
p2998
I818
sS'Sandeeps'
p2999
I340
sS'shilpas'
p3000
I838
sS'archanag'
p3001
I521
sS'Ss2195'
p3002
I400
sS'Kasturi'
p3003
I182
sS'Srishti'
p3004
I399
sS'Amandeep'
p3005
I34
sS'rahul16180'
p3006
I766
sS'sunitagupta72'
p3007
I871
sS'Shaloo'
p3008
I361
sS'ankit sharma'
p3009
I504
sS'ankushvarma12'
p3010
I505
sS'Sheeba Naqvi'
p3011
I366
sS'Mukki_Rana'
p3012
I232
sS'dr_rajive'
p3013
I590
sS'veenadhawan'
p3014
I904
sS'Dewangee'
p3015
I126
sS'priya'
p3016
I745
sS'adarsh_007'
p3017
I473
sS'hvac24himanshu'
p3018
I612
sS'Mudit goel'
p3019
I229
sS'Madan'
p3020
I202
sS'Amitjain '
p3021
I35
sS'bishtman'
p3022
I553
sS'The mysterious'
p3023
I416
sS'sonal_<>'
p3024
I859
sS'prakhar'
p3025
I739
sS'Rohit'
p3026
I322
sS'RichaS7'
p3027
I315
sS'Kiran'
p3028
I187
sS'Rajeshidh'
p3029
I298
sS'neera'
p3030
I700
sS'Sameer Khan'
p3031
I339
sS'tanya'
p3032
I881
sS'Ashok Kumar'
p3033
I75
sS'bhavya bhatia'
p3034
I549
sS'Roshan'
p3035
I323
sS'seemajain'
p3036
I823
sS'Protichi'
p3037
I284
sS'honey'
p3038
I610
sS'adiv12'
p3039
I478
sS'neerajkrsingh95'
p3040
I701
sS'vaibhavching'
p3041
I895
sS'Dehati'
p3042
I124
sS'Shivani'
p3043
I370
sS'Preeti'
p3044
I275
sS'sandeep6922'
p3045
I810
sS'Avinash'
p3046
I80
sS'guru'
p3047
I601
sS'Mohd Kashif2'
p3048
I223
sS'Mahima Verma'
p3049
I210
sS'vishal kumar'
p3050
I914
sS'Navin'
p3051
I248
sS'MadhurV9784'
p3052
I207
sS'VishalSR711'
p3053
I443
sS'ujjwalsagar11'
p3054
I888
sS'harshit16042'
p3055
I606
sS'Taejas'
p3056
I410
sS'Deeksha'
p3057
I118
sS'Parth '
p3058
I264
sS'Nitin Kumar'
p3059
I259
sS'REVERB283'
p3060
I285
sS'PremL'
p3061
I277
sS'ruchi'
p3062
I798
sS'manish101'
p3063
I658
sS'Mayanksinghal'
p3064
I217
sS'abc1'
p3065
I461
sS'salsa'
p3066
I808
sS'chiyasej'
p3067
I569
sS'Nakul lawaria'
p3068
I241
sS'Pradeep Wason'
p3069
I270
sS'Rohan Chhokra'
p3070
I321
sS'vipin'
p3071
I909
sS'a'
p3072
I456
sS'ShubhamGoswami'
p3073
I383
sS'moh16247'
p3074
I679
sS'Prema'
p3075
I278
sS'ayush16024'
p3076
I541
sS'sahilyadav'
p3077
I805
sS'Vikas'
p3078
I437
sS'codwarlock'
p3079
I572
sS'Vanshika gupta'
p3080
I427
sS'naman16058'
p3081
I694
sS'Anil Marwah'
p3082
I38
sS'siddhantgoel'
p3083
I855
sS'paridhi16065'
p3084
I729
sS'Vedant'
p3085
I431
sS'pankaj19'
p3086
I726
sS'diksha160171'
p3087
I587
sS'shreedhar16197'
p3088
I842
sS'akshat14132'
p3089
I491
sS'Savita'
p3090
I357
sS'Mkverma'
p3091
I221
sS'vpsaini71@gmail.com'
p3092
I917
sS'sushant'
p3093
I876
sS'siddhant16199'
p3094
I853
sS'Rishi'
p3095
I318
sS'Snigdha'
p3096
I393
sS'madhav16159'
p3097
I651
sS'Namrata13065'
p3098
I242
sS'Vaibhav'
p3099
I425
sS'Karish08'
p3100
I179
sS'Satya'
p3101
I352
sS'prernak'
p3102
I744
sS'akaReddy'
p3103
I488
sS'Shashi'
p3104
I365
sS'Vatsala Arora'
p3105
I430
sS'appu250'
p3106
I518
sS'avig'
p3107
I538
sS'chandan110022'
p3108
I563
sS'Naresh'
p3109
I244
sS'Pradeep '
p3110
I268
sS'Savitaverma'
p3111
I358
sS'Mugen'
p3112
I230
sS'aditya16127'
p3113
I476
sS'Vishal711'
p3114
I441
sS'nandinihooda'
p3115
I696
sS'Shruti'
p3116
I378
sS'D.Saksham'
p3117
I110
sS'jaimatadi'
p3118
I621
sS'Prerna Agarwal'
p3119
I280
sS'Ratan'
p3120
I305
sS'askwhat'
p3121
I537
sS'deepayan15093'
p3122
I580
sS'Himanshu Sharma '
p3123
I162
sS'shalini71'
p3124
I830
sS'brihi16142'
p3125
I554
sS'adityas114'
p3126
I477
sS'Manas'
p3127
I212
sS'hkaggarwal'
p3128
I609
sS'abdulkhan'
p3129
I463
sS'Aashisha'
p3130
I10
sS'Richa'
p3131
I310
sS'pratyush16070@iiitd.ac.in'
p3132
I741
sS'Yamini.sejwa'
p3133
I448
sS'Harjeet'
p3134
I155
sS'ashrafdilnawaz'
p3135
I534
sS'Arashdeep Kaur'
p3136
I61
sS'Bhawani'
p3137
I90
sS'Karishma'
p3138
I180
sS'Akash28'
p3139
I27
sS'Ghansham Bansal'
p3140
I146
sS'Divya'
p3141
I133
sS'bhrigudov'
p3142
I550
sS'megha07'
p3143
I670
sS'Sanjay'
p3144
I342
sS'Anubhav'
p3145
I52
sS'gupta96.shivam@gmail.com'
p3146
I600
sS'Shubham '
p3147
I382
sS'utkarsh16110'
p3148
I891
sS'PAPA'
p3149
I262
sS'ranjitgita95@gmail.com'
p3150
I780
sS'jaycee'
p3151
I627
sS'Hasan Jawaid Khan'
p3152
I158
sS'Anshul'
p3153
I50
sS'Mahi'
p3154
I208
sS'Rosy'
p3155
I325
sS'Akanksha'
p3156
I23
sS'jatinder'
p3157
I626
sS'akif.khan'
p3158
I490
sS'kanu'
p3159
I635
sS'nageshwar_sahu'
p3160
I692
sS'geeta'
p3161
I598
sS'rahulsaini78'
p3162
I768
sS'p'
p3163
I720
sS'mayam'
p3164
I662
sS'Kanika Jain '
p3165
I175
sS'chandan2898'
p3166
I565
sS'aakashjoshi'
p3167
I458
sS'abhi'
p3168
I464
sS'Deepak'
p3169
I120
sS'chaitanya'
p3170
I560
sS'Shreyas'
p3171
I377
sS'Ginnik'
p3172
I147
sS'vrinda16279'
p3173
I918
sS'lolwa'
p3174
I649
sS'niti'
p3175
I716
sS'Anvit'
p3176
I56
sS'vaishali1994'
p3177
I896
sS'baani16234'
p3178
I545
sS'Rajni Gupta'
p3179
I299
sS'Arun Garg'
p3180
I66
sS'saatvikj'
p3181
I800
sS'mkmadhav'
p3182
I678
sS'anoop'
p3183
I507
sS'shubham'
p3184
I847
sS'shubhan'
p3185
I850
sS'lavina16052'
p3186
I646
sS'Chita Chidambaram'
p3187
I105
sS'zxcvb'
p3188
I924
sS'RichaGoswami'
p3189
I314
sS'gitasharma1970@gmail.com'
p3190
I599
sS'MaddyThakker'
p3191
I203
sS'aseemsaini'
p3192
I530
sS'varun28031999'
p3193
I900
sS'LovedeepChhokra'
p3194
I199
sS'meenal123'
p3195
I667
sS'Vishal Hooda'
p3196
I440
sS'Nabeel Ahmad'
p3197
I239
sS'Richa2'
p3198
I313
sS'adinehria'
p3199
I474
sS'Radhikakedia'
p3200
I286
sS'sanjeev'
p3201
I815
sS'mcjain'
p3202
I666
sS'arun gaba'
p3203
I526
sS'M H Akhtar'
p3204
I201
sS'Ch1ck3n65'
p3205
I95
sS'pankaj16176'
p3206
I725
sS'mayank16162'
p3207
I663
sS'Pradeep Sharma'
p3208
I269
sS'Ishan'
p3209
I167
sS'Sunny110051'
p3210
I403
sS'diksha '
p3211
I586
sS'Keeru24'
p3212
I184
sS'rekhaarora'
p3213
I784
sS'chiya'
p3214
I568
sS'dushyant16035'
p3215
I592
sS'Meghaa'
p3216
I220
sS'Daljeet'
p3217
I112
sS'aditya16008'
p3218
I475
sS'Akash869'
p3219
I28
sS'saurabh.sa27'
p3220
I819
sS'Deepti'
p3221
I122
sS'saksham'
p3222
I806
sS'Aayushi'
p3223
I11
sS'Shailesh '
p3224
I360
sS'harsh16041'
p3225
I604
sS'deepakswiti@yahoo.com'
p3226
I577
sS'suraj kumar'
p3227
I874
sS'Akanksha Mishra'
p3228
I24
sS'Lokeshmaini'
p3229
I198
sS'sunnyjangra98'
p3230
I872
sS'Yogesh'
p3231
I452
sS'faiz'
p3232
I593
sS'Alka'
p3233
I31
sS'spidy279'
p3234
I864
sS'Shivin '
p3235
I371
sS'Lovedeep_Chhokra'
p3236
I200
sS'satish'
p3237
I816
sS'msrk'
p3238
I683
sS'NAKUL'
p3239
I235
sS'Shubhi0108'
p3240
I384
sS'Ashutosh Brahma'
p3241
I76
sS'Kundan'
p3242
I190
sS'seemant'
p3243
I824
sS'achala.sharma25'
p3244
I471
sS'abhim51'
p3245
I465
sS'banarasi'
p3246
I546
sS'sharique'
p3247
I833
sS'Shweta Rana'
p3248
I387
sS'arun'
p3249
I525
sS'suryaansh'
p3250
I875
sS'rahul singh'
p3251
I763
sS'Vidi'
p3252
I435
sS'Ashish_16'
p3253
I73
sS'Om Prakash'
p3254
I261
sS'NareshJain'
p3255
I245
sS'Gaurav sharma'
p3256
I143
sS'neha16037'
p3257
I703
sS'aryaman5c'
p3258
I529
sS'Shelly'
p3259
I367
sS'sanchit16264'
p3260
I809
sS'munish16167'
p3261
I688
sS'rohit'
p3262
I796
sS'Bsyadav'
p3263
I94
sS'Aniruddh'
p3264
I40
sS'Madhav Thakker '
p3265
I206
sS'jai_mahajan'
p3266
I620
sS'Yashu'
p3267
I450
sS'q'
p3268
I752
sS'arpana'
p3269
I523
sS'mia'
p3270
I676
sS'Sahil Vaid'
p3271
I334
sS'reddy'
p3272
I783
sS'Sriram arora'
p3273
I398
sS'agrawalamod'
p3274
I482
sS'kanuk'
p3275
I636
sS'cgupt'
p3276
I558
sS'Bhaskar'
p3277
I86
sS'devesh16145'
p3278
I583
sS'Varshasharma'
p3279
I428
sS'Simran'
p3280
I391
sS'SSSharma'
p3281
I330
sS'Megha'
p3282
I219
sS'jain_anita'
p3283
I622
sS'soummyaah'
p3284
I862
sS'Ankur Sharma'
p3285
I48
sS'aman'
p3286
I493
sS'pankaj022'
p3287
I723
sS'Rajesh'
p3288
I295
sS'Cosmopal'
p3289
I109
sS'afzal ahemad'
p3290
I480
sS'pankaj123'
p3291
I724
sS'chahat'
p3292
I559
sS'ishmeet'
p3293
I618
sS'rakeshsharma206@gmail.com'
p3294
I775
sS'amar'
p3295
I495
sS'S P'
p3296
I328
sS'Champa72'
p3297
I96
sS'jiggylepcha'
p3298
I628
sS'Sangita_1001'
p3299
I341
sS'shrebox'
p3300
I841
sS'vijayajoshi'
p3301
I907
sS'Kanika'
p3302
I174
sS'Prince patel'
p3303
I281
sS'Yamini.sejwal'
p3304
I449
sS'anubhav16014b'
p3305
I513
sS'maggienoodles'
p3306
I653
sS'Ekta'
p3307
I136
sS'User8'
p3308
I422
sS'Holmesfan'
p3309
I165
sS'Sanjay Kumar'
p3310
I343
sS'shashank'
p3311
I834
sS'Kapeesh'
p3312
I177
sS'Erised98'
p3313
I138
sS'KIRA'
p3314
I171
sS'amitrawat058@gmail.com'
p3315
I497
sS'lthukral'
p3316
I650
sS'monicadhawan'
p3317
I682
sS'D1'
p3318
I111
sS'mahikaw'
p3319
I654
sS'Meenakshi Garg'
p3320
I218
sS'Arnav Kumar'
p3321
I64
sS'sahil97'
p3322
I804
sS'rajesh1967@gmail.com'
p3323
I774
sS'Nandini'
p3324
I243
sS'kc_pant'
p3325
I640
sS'MrCruiser'
p3326
I226
sS'code_now'
p3327
I571
sS'Rsh2ada'
p3328
I327
sS'Rakesh123'
p3329
I300
sS'Akansha'
p3330
I25
sS'abhishek2309'
p3331
I469
sS'ashokkr.saini'
p3332
I533
sS'nadeem'
p3333
I691
sS'q1'
p3334
I753
sS'Kanupriya Dang'
p3335
I176
sS'vishal'
p3336
I913
sS'ayush12121997'
p3337
I540
sS'Sunil kumar'
p3338
I401
sS'Shubhra'
p3339
I385
sS'Harshit panwar'
p3340
I157
sS'aakash16215'
p3341
I457
sS'jap'
p3342
I625
sS'iwaz'
p3343
I619
sS'Tanish'
p3344
I411
sS'Raghav1'
p3345
I289
sS'suniljoshi'
p3346
I869
sS'ANAND'
p3347
I6
sS'akanksha'
p3348
I489
sS'sonia gaba'
p3349
I860
sS'Anil kumar'
p3350
I39
sS'S P Sharma'
p3351
I329
sS'jyoti11'
p3352
I631
sS'Yajan'
p3353
I447
sS'cerberus'
p3354
I556
sS'manju'
p3355
I660
sS'varun16112'
p3356
I899
sS'Akshay Thakur'
p3357
I30
sS'Tapish05'
p3358
I413
sS'Devi Prasad jena'
p3359
I125
sS'Raj Kumar'
p3360
I294
sS'siddhantsingh'
p3361
I856
sS'Ahmad'
p3362
I19
sS'NSB64'
p3363
I237
sS'piyushchoudhary'
p3364
I735
sS'Umesh Gupta '
p3365
I421
sS'shadab'
p3366
I827
sS'sakti14093'
p3367
I807
sS'Anshuman Suri'
p3368
I51
sS'Sautan Sharma'
p3369
I356
sS'shrinathyadav'
p3370
I845
sS'srishti01'
p3371
I865
sS'rajesh'
p3372
I773
sS'tanaya'
p3373
I880
sS'richa239'
p3374
I786
sS'Raghavv'
p3375
I290
sS'rishi123'
p3376
I787
sS'mohit'
p3377
I681
sS'Ric'
p3378
I308
sS'Spitiart'
p3379
I395
sS'drakg123'
p3380
I591
sS'anjali9899'
p3381
I502
sS'9953547227 '
p3382
I3
sS'neelkamal'
p3383
I698
sS'Nepun Suneja'
p3384
I256
sS'Harsh'
p3385
I156
sS'sangeeta'
p3386
I812
sS'sahibrattan98'
p3387
I802
sS'ravi panwar'
p3388
I782
sS'Vedant1'
p3389
I432
sS'arushi'
p3390
I528
sS'geekSid'
p3391
I597
sS'kushagra14055'
p3392
I644
sS'sahil'
p3393
I803
sS'ipranjul'
p3394
I616
sS'Anusha Raj'
p3395
I55
sS'shilpa08'
p3396
I837
sS'mukeshkmr'
p3397
I686
sS'mehak_jain13'
p3398
I674
sS'Nishad Bhelekar'
p3399
I258
sS'Poonam duggal'
p3400
I266
sS'Geeta'
p3401
I145
sS'ritu.harsh'
p3402
I790
sS'zainab'
p3403
I923
sS'ritu'
p3404
I789
sS'savitasaini'
p3405
I820
sS'Pkaksha'
p3406
I265
sS'anshumanprakash123'
p3407
I510
sS'puruvir333'
p3408
I750
sS'Shrutika.sethi'
p3409
I379
sS'r'
p3410
I756
sS'Neetu'
p3411
I253
sS'Karunakar Singh'
p3412
I181
sS'Afsha shah'
p3413
I18
sS'ashutosh15011'
p3414
I535
sS'ajay1967'
p3415
I485
sS'legolas'
p3416
I647
sS'meetsid20'
p3417
I669
sS'Vedant2'
p3418
I433
sS'Satish'
p3419
I350
sS'vandanasharma'
p3420
I897
sS'swati gaba'
p3421
I878
sS'Ayush Raj Mehrotra '
p3422
I83
sS'abhishek16006'
p3423
I468
sS'Alok Singh'
p3424
I33
sS'Ritvik13078'
p3425
I320
sS'2ez4nimzi'
p3426
I2
sS'umesh'
p3427
I889
sS'vijay kumar'
p3428
I906
sS'Pramodh'
p3429
I273
sS'puru98347'
p3430
I748
sS'mukesh'
p3431
I685
sS'Kapish'
p3432
I178
sS'Cheffy'
p3433
I104
sS'Aditya'
p3434
I17
sS'abc123'
p3435
I462
sS'ayushi16025'
p3436
I543
sS'kgmash'
p3437
I641
sS'Rahul Bansal'
p3438
I292
sS'cj'
p3439
I570
sS'Manish'
p3440
I214
sS'Avdesh Kumar'
p3441
I79
sS'divya95'
p3442
I589
sS'Dimple'
p3443
I131
sS'nikita13068'
p3444
I708
sS'vishaal27'
p3445
I912
sS'cf'
p3446
I557
sS'vaday'
p3447
I892
sS'mehak'
p3448
I673
sS'VikashKumandan '
p3449
I438
sS'Shyam'
p3450
I389
sS'Sooraj'
p3451
I394
sS'Saurabh'
p3452
I355
sS'Rimjhim'
p3453
I316
sS'ABCDEFGHI JKLM'
p3454
I5
sS'meetarora'
p3455
I668
sS'Sharmistha Gupta'
p3456
I363
sS'anurag'
p3457
I515
sS'devishi'
p3458
I584
sS'renusarin'
p3459
I785
sS'JKLM ABCDEFGHI'
p3460
I168
sS'Aakash22'
p3461
I9
sS'anandita9988'
p3462
I499
sS'Ajay'
p3463
I20
sS'diksha'
p3464
I585
sS'SSingh1402'
p3465
I331
sS'Poonamsaini'
p3466
I267
sS'krishan15144'
p3467
I643
sS'Shashanka'
p3468
I364
sS'rohan_chhokra'
p3469
I795
sS'MalikMishra'
p3470
I211
sS'Deeksha '
p3471
I119
sS'cpiyush15071'
p3472
I573
sS'Gitasharma'
p3473
I149
sS'Sai Sabitha'
p3474
I335
sS'Vartika'
p3475
I429
sS'jyoti101'
p3476
I630
sS'swati26'
p3477
I879
sS'abhimanyu'
p3478
I466
sS'Rashi.prakash8'
p3479
I304
sS'DauntlessTris'
p3480
I115
sS'Ekta Rawat'
p3481
I137
sS'Kalpana '
p3482
I173
sS'Santosh'
p3483
I346
sS'veer'
p3484
I905
sS'priyanka15047'
p3485
I746
sS'Mukulmimmo'
p3486
I233
sS'qwerty'
p3487
I754
sS'n'
p3488
I689
sS'parnami.sanjay868@gmail.com'
p3489
I730
sS'Saksham Gupta'
p3490
I338
sS'Chanchal'
p3491
I97
sS'Any'
p3492
I57
sS'kajalgarg'
p3493
I632
sS'Prem'
p3494
I276
sS'Astitv'
p3495
I77
sS'Suraj Prathik Kumar'
p3496
I406
sS'Khan'
p3497
I185
sS'Arashdeep '
p3498
I60
sS'Divij'
p3499
I132
sS'nikita13111'
p3500
I709
sS'Gautam'
p3501
I144
sS'Priya15073'
p3502
I282
sS'rohan'
p3503
I794
sS'rahul  kumar'
p3504
I762
sS'archana'
p3505
I520
sS'rparshad'
p3506
I797
sS'VishalS711'
p3507
I442
sS'ak.shinde09'
p3508
I487
sS'Munish'
p3509
I234
sS'veancy'
p3510
I901
sS'manishJ'
p3511
I659
sS'harsh'
p3512
I603
sS'Ajay1998'
p3513
I22
sS'pankhuri22'
p3514
I727
sS'Tilakraj'
p3515
I417
sS'Sachin '
p3516
I332
sS'Priysha20'
p3517
I283
sS'Tanushigarg40'
p3518
I412
sS'nishant'
p3519
I714
sS'Apurupa'
p3520
I59
sS'shivm112'
p3521
I840
sS'pulkit14080'
p3522
I747
sS'gaurav'
p3523
I596
sS'meghna16056'
p3524
I672
sS'Raghav Verma'
p3525
I288
sS'shreyansh '
p3526
I844
sS'AnjaliUjjainia'
p3527
I43
sS'arp229'
p3528
I522
sS'Richa Goel'
p3529
I311
sS'shashank.kataria'
p3530
I835
sS'shreekant'
p3531
I843
sS'Feeroz Ahmed'
p3532
I141
sS'abhishek13005'
p3533
I467
sS'Shinu'
p3534
I369
sS'Utkarsh Kohli'
p3535
I424
sS'vader71'
p3536
I893
sS'kartikeyea'
p3537
I637
sS'Aysha'
p3538
I82
sS'mayur16031'
p3539
I665
sS'Vijay'
p3540
I436
sS'rajenderkumar2611'
p3541
I772
sS'har25'
p3542
I602
sS'deepanshu16144'
p3543
I578
sS'suman'
p3544
I866
sS'score'
p3545
I821
sS'sunita1621'
p3546
I870
sS'kavya vohra'
p3547
I639
sS'Ralph '
p3548
I301
sS'Dicksha'
p3549
I129
sS'Shubham'
p3550
I381
sS'Srattan98'
p3551
I397
sS'Anju'
p3552
I44
sS'Dangi'
p3553
I113
sS'Sweta_Chhokra'
p3554
I408
sS'LATA007'
p3555
I192
sS'ThatAwkwardLad'
p3556
I415
sS'Madhav Goel'
p3557
I205
sS'Zoha'
p3558
I455
sS'aayush9'
p3559
I459
sS'nvedant07'
p3560
I719
sS'Ujain19'
p3561
I418
sS'Mahima'
p3562
I209
sS'Saksham'
p3563
I337
sS'deepakddk1971r'
p3564
I576
sS'sumanlata'
p3565
I867
sS'Diadem98'
p3566
I128
sS'tarush16109'
p3567
I883
sS'khulbekck'
p3568
I642
sS'palika'
p3569
I721
sS'rahul16181'
p3570
I767
sS'peeyush'
p3571
I731
sS'Sarthak Aditya'
p3572
I349
sS'9958221803'
p3573
I4
sS'Lalita Gagneja'
p3574
I194
sS'ayush97'
p3575
I542
sS'vaibhav97'
p3576
I894
sS'chitraligoswami'
p3577
I567
sS'surabhi.chaudhary'
p3578
I873
sS'Sraj'
p3579
I396
sS'Rajesh Bhagat'
p3580
I296
sS'chaitanyaagarwal'
p3581
I562
sS'fornarnia'
p3582
I594
sS'nilay'
p3583
I710
sS'ashokjain'
p3584
I532
sS'skm'
p3585
I858
sS'rjalfa'
p3586
I791
sS'vedant15188'
p3587
I903
sS'seema'
p3588
I822
sS'Krishna'
p3589
I188
sS'Kushagra Arora'
p3590
I191
sS'iamgroot42'
p3591
I615
sS'Suraj'
p3592
I405
sS'Mona'
p3593
I224
sS'Shreshtha singhal'
p3594
I375
sS'alpna'
p3595
I492
sS'Dhruv Bhagat'
p3596
I127
sS'shamim'
p3597
I832
sS'qww'
p3598
I755
sS'Mani'
p3599
I213
sS'anshika'
p3600
I508
sS'Shweta2206'
p3601
I388
sS'karvijain'
p3602
I638
sS'neenawason'
p3603
I699
sS'Yatendra'
p3604
I451
sS'vimal'
p3605
I908
sS'Vipin Goel'
p3606
I439
sS'dattatreya303'
p3607
I574
sS'nihesh'
p3608
I705
sS'shefali'
p3609
I836
sS'BhatiaCo'
p3610
I89
sS'prerna'
p3611
I743
sS'Anmol18'
p3612
I49
sS'mukulrawal'
p3613
I687
sS'Manmeet'
p3614
I215
sS'Chanderkala'
p3615
I98
sS'Abhijeet Mishra '
p3616
I12
sS'kanika'
p3617
I633
sS'Ram'
p3618
I302
sS'rishin.lal1012'
p3619
I788
sS'manav'
p3620
I657
sS'anildhawan'
p3621
I501
sS'chaosmeteor'
p3622
I566
sS'Shahab'
p3623
I359
sS'ganelo'
p3624
I595
sS'lipistic_lagalelu'
p3625
I648
sS'aishwarya'
p3626
I483
sS'chaitanya16027'
p3627
I561
sS'Cloak98'
p3628
I107
sS'Ishaan Bassi'
p3629
I166
sS'tanya16108'
p3630
I882
sS'Nitin13070'
p3631
I260
sS'ashutosh16231'
p3632
I536
sS'Khushi'
p3633
I186
sS'admin@flickscore'
p3634
I479
sS'Cheerag 8'
p3635
I100
sS'pankaj'
p3636
I722
sS'Ankit'
p3637
I45
sS'Shweta'
p3638
I386
sS'Mrakash'
p3639
I227
sS'Wallah'
p3640
I446
sS'Shreyagupta'
p3641
I376
sS'Ajay12'
p3642
I21
sS'Ankur Rastogi'
p3643
I47
sS'sahib16081'
p3644
I801
sS'Aakash'
p3645
I8
sS'Aakanksha'
p3646
I7
sS'GandiHrideysh1'
p3647
I142
sS'Cheerag1'
p3648
I102
sS'Shreetama'
p3649
I374
sS'viresh'
p3650
I911
sS'Cheerag7'
p3651
I103
sS'Abhimanyu Tanwar'
p3652
I13
sS'Satyam007'
p3653
I354
sS'ashi'
p3654
I531
sS'Abhishek Gupta'
p3655
I15
sS'Tejis'
p3656
I414
sS'Faiz'
p3657
I139
sS'singhjaibir68'
p3658
I857
sS'Raj Kamal'
p3659
I293
sS'anmol89'
p3660
I506
sS'Umesh'
p3661
I420
sS'shrutikhaitan'
p3662
I846
sS'deepak16031'
p3663
I575
sS'Lekh Raj'
p3664
I196
sS'kanikasaini'
p3665
I634
sS'RajeshVerma'
p3666
I297
sS'RishabhGoswami'
p3667
I317
sS'trisha101'
p3668
I886
sS'Jasbir panwar'
p3669
I169
sS'jainakshay2601'
p3670
I623
sS'test1'
p3671
I885
sS'Neha Sharma'
p3672
I255
sS'siddhant@123'
p3673
I854
sS'Redusa'
p3674
I307
sS'iadirock'
p3675
I613
sS'Deepak _ca2004'
p3676
I121
sS'PrateekSingh'
p3677
I274
sS'vishwanath maurya'
p3678
I916
sS'Deadpool2'
p3679
I116
sS'Dush'
p3680
I135
sS'Vishwas'
p3681
I444
sS'preeti singhal'
p3682
I742
sS'mannika'
p3683
I661
sS'ND'
p3684
I236
sS'shubhamsagar250'
p3685
I849
sS'raghavsood98'
p3686
I760
sS'yomojet'
p3687
I921
sS'malinijoshi'
p3688
I655
sS'amit010dalel'
p3689
I496
sS'Neeti Arora'
p3690
I252
sS'Ashish'
p3691
I70
sS'Rahul'
p3692
I291
sS'Ramanathan'
p3693
I303
sS'nidhi29'
p3694
I704
sS'Akash'
p3695
I26
sS'BlueO'
p3696
I93
sS'Lokender Singh'
p3697
I197
sS'Dimpi'
p3698
I130
sS'neha '
p3699
I702
sS'Vaibhav Dang'
p3700
I426
sS'jaishricow'
p3701
I624
sS'WadeWilson'
p3702
I445
sS'rajat'
p3703
I769
sS'Siddhi singhal'
p3704
I390
sS'prateek15044'
p3705
I740
sS'ramakant'
p3706
I776
sS'Dee'
p3707
I117
sS'rahul'
p3708
I761
sS'SankaLp'
p3709
I345
sS'pradeep'
p3710
I737
sS'Nakul'
p3711
I240
sS'Swatilekha Majumdar'
p3712
I407
sS'rjrobin18'
p3713
I792
sS'Fazilath'
p3714
I140
sS'Hedwig30'
p3715
I160
sS'Kajal'
p3716
I172
sS'anubhav16014a'
p3717
I512
sS'Archana'
p3718
I62
sS'baani'
p3719
I544
sS'bhaavyasood96'
p3720
I547
sS'harshagns'
p3721
I605
sS'Umashankar'
p3722
I419
sS'Haseena'
p3723
I159
sS'SaiKiran'
p3724
I336
sS'AlkaGupta'
p3725
I32
sS'devesh145'
p3726
I582
sS'rjrobin_18@yahoo.com'
p3727
I793
sS'shubham0906'
p3728
I848
sS'mayur'
p3729
I664
sS'Madhav'
p3730
I204
sS'aprajita1964'
p3731
I519
sS'juhiB'
p3732
I629
sS'Hina'
p3733
I163
sS'poojamacker'
p3734
I736
sS'Gotuhell'
p3735
I151
sS'hrithik16237'
p3736
I611
sS'Anil'
p3737
I36
sS'Mukesh_Rawat'
p3738
I231
sS'Avneet'
p3739
I81
sS'piyush15071'
p3740
I734
sS'rahul16074'
p3741
I765
sS'Anita Goel'
p3742
I42
sS'nachiketa1992'
p3743
I690
sS'Kavya '
p3744
I183
sS'yusuf'
p3745
I922
sS'test'
p3746
I884
sS'Abhishek'
p3747
I14
sS'Lalitha'
p3748
I195
sS'naman16169'
p3749
I695
sS'Rsc98'
p3750
I326
sS'Hamid Akhtar'
p3751
I154
sS'nitish'
p3752
I717
sS'shubhika123'
p3753
I851
sS'Bijla_Rana'
p3754
I92
sS'desolation'
p3755
I581
sS'anvitmangal'
p3756
I517
sS'Bharat70'
p3757
I85
sS'megha16033'
p3758
I671
sS'Prerna'
p3759
I279
sS'Chudail'
p3760
I106
sS'NSB64_'
p3761
I238
sS'Ashok'
p3762
I74
sS'Anuprriya'
p3763
I54
sS'amandeep'
p3764
I494
sS'swarnlata'
p3765
I877
sS'Naveen'
p3766
I246
sS'pwason'
p3767
I751
sS'shadguna'
p3768
I828
sS'bsayan'
p3769
I555
sS'Sagar Verma'
p3770
I333
sS'Surabhi'
p3771
I404
sS'Nawazish'
p3772
I249
sS'rahul.ran1990'
p3773
I764
sS'hello'
p3774
I607
sS'nishalal'
p3775
I713
sS'navneet'
p3776
I697
s(dp3777
I1
g2920
sI2
g3426
sI3
g3382
sI4
g3573
sI5
g3454
sI6
g3347
sI7
g3646
sI8
g3645
sI9
g3461
sI10
g3130
sI11
g3223
sI12
g3616
sI13
g3652
sI14
g3747
sI15
g3655
sI16
g2906
sI17
g3434
sI18
g3413
sI19
g3362
sI20
g3463
sI21
g3642
sI22
g3513
sI23
g3156
sI24
g3228
sI25
g3330
sI26
g3695
sI27
g3139
sI28
g3219
sI29
g2926
sI30
g3357
sI31
g3233
sI32
g3725
sI33
g3424
sI34
g3005
sI35
g3021
sI36
g3737
sI37
g2937
sI38
g3082
sI39
g3350
sI40
g3264
sI41
g2857
sI42
g3742
sI43
g3527
sI44
g3552
sI45
g3637
sI46
g2982
sI47
g3643
sI48
g3285
sI49
g3612
sI50
g3153
sI51
g3368
sI52
g3145
sI53
g2977
sI54
g3763
sI55
g3395
sI56
g3176
sI57
g3492
sI58
g2858
sI59
g3520
sI60
g3498
sI61
g3136
sI62
g3718
sI63
g2924
sI64
g3321
sI65
g2958
sI66
g3180
sI67
g2879
sI68
g2910
sI69
g2996
sI70
g3691
sI71
g2973
sI72
g2887
sI73
g3253
sI74
g3762
sI75
g3033
sI76
g3241
sI77
g3495
sI78
g2875
sI79
g3441
sI80
g3046
sI81
g3739
sI82
g3538
sI83
g3422
sI84
g2933
sI85
g3757
sI86
g3277
sI87
g2912
sI88
g2856
sI89
g3610
sI90
g3137
sI91
g2892
sI92
g3754
sI93
g3696
sI94
g3263
sI95
g3205
sI96
g3297
sI97
g3491
sI98
g3615
sI99
g2942
sI100
g3635
sI101
g2905
sI102
g3648
sI103
g3651
sI104
g3433
sI105
g3187
sI106
g3760
sI107
g3628
sI108
g2966
sI109
g3289
sI110
g3117
sI111
g3318
sI112
g3217
sI113
g3553
sI114
g2876
sI115
g3480
sI116
g3679
sI117
g3707
sI118
g3057
sI119
g3471
sI120
g3169
sI121
g3676
sI122
g3221
sI123
g2960
sI124
g3042
sI125
g3359
sI126
g3015
sI127
g3596
sI128
g3566
sI129
g3549
sI130
g3698
sI131
g3443
sI132
g3499
sI133
g3141
sI134
g2897
sI135
g3680
sI136
g3307
sI137
g3481
sI138
g3313
sI139
g3657
sI140
g3714
sI141
g3532
sI142
g3647
sI143
g3256
sI144
g3501
sI145
g3401
sI146
g3140
sI147
g3172
sI148
g2896
sI149
g3473
sI150
g2871
sI151
g3735
sI152
g2970
sI153
g2872
sI154
g3751
sI155
g3134
sI156
g3385
sI157
g3340
sI158
g3152
sI159
g3723
sI160
g3715
sI161
g2869
sI162
g3123
sI163
g3733
sI164
g2898
sI165
g3309
sI166
g3629
sI167
g3209
sI168
g3460
sI169
g3669
sI170
g2916
sI171
g3314
sI172
g3716
sI173
g3482
sI174
g3302
sI175
g3165
sI176
g3335
sI177
g3312
sI178
g3432
sI179
g3100
sI180
g3138
sI181
g3412
sI182
g3003
sI183
g3744
sI184
g3212
sI185
g3497
sI186
g3633
sI187
g3028
sI188
g3589
sI189
g2936
sI190
g3242
sI191
g3590
sI192
g3555
sI193
g2955
sI194
g3574
sI195
g3748
sI196
g3664
sI197
g3697
sI198
g3229
sI199
g3194
sI200
g3236
sI201
g3204
sI202
g3020
sI203
g3191
sI204
g3730
sI205
g3557
sI206
g3265
sI207
g3052
sI208
g3154
sI209
g3562
sI210
g3049
sI211
g3470
sI212
g3127
sI213
g3599
sI214
g3440
sI215
g3614
sI216
g2883
sI217
g3064
sI218
g3320
sI219
g3282
sI220
g3216
sI221
g3091
sI222
g2957
sI223
g3048
sI224
g3593
sI225
g2861
sI226
g3326
sI227
g3639
sI228
g2911
sI229
g3019
sI230
g3112
sI231
g3738
sI232
g3012
sI233
g3486
sI234
g3509
sI235
g3239
sI236
g3684
sI237
g3363
sI238
g3761
sI239
g3197
sI240
g3711
sI241
g3068
sI242
g3098
sI243
g3324
sI244
g3109
sI245
g3255
sI246
g3766
sI247
g2956
sI248
g3051
sI249
g3772
sI250
g2969
sI251
g2886
sI252
g3690
sI253
g3411
sI254
g2904
sI255
g3672
sI256
g3384
sI257
g2935
sI258
g3399
sI259
g3059
sI260
g3631
sI261
g3254
sI262
g3149
sI263
g2867
sI264
g3058
sI265
g3406
sI266
g3400
sI267
g3466
sI268
g3110
sI269
g3208
sI270
g3069
sI271
g2865
sI272
g2922
sI273
g3429
sI274
g3677
sI275
g3044
sI276
g3494
sI277
g3061
sI278
g3075
sI279
g3759
sI280
g3119
sI281
g3303
sI282
g3502
sI283
g3517
sI284
g3037
sI285
g3060
sI286
g3200
sI287
g2859
sI288
g3525
sI289
g3345
sI290
g3375
sI291
g3692
sI292
g3438
sI293
g3659
sI294
g3360
sI295
g3288
sI296
g3580
sI297
g3666
sI298
g3029
sI299
g3179
sI300
g3329
sI301
g3548
sI302
g3618
sI303
g3693
sI304
g3479
sI305
g3120
sI306
g2983
sI307
g3674
sI308
g3378
sI309
g2923
sI310
g3131
sI311
g3529
sI312
g2989
sI313
g3198
sI314
g3189
sI315
g3027
sI316
g3453
sI317
g3667
sI318
g3095
sI319
g2984
sI320
g3425
sI321
g3070
sI322
g3026
sI323
g3035
sI324
g2949
sI325
g3155
sI326
g3750
sI327
g3328
sI328
g3296
sI329
g3351
sI330
g3281
sI331
g3465
sI332
g3516
sI333
g3770
sI334
g3271
sI335
g3474
sI336
g3724
sI337
g3563
sI338
g3490
sI339
g3031
sI340
g2999
sI341
g3299
sI342
g3144
sI343
g3310
sI344
g2921
sI345
g3709
sI346
g3483
sI347
g2968
sI348
g2934
sI349
g3572
sI350
g3419
sI351
g2932
sI352
g3101
sI353
g2866
sI354
g3653
sI355
g3452
sI356
g3369
sI357
g3090
sI358
g3111
sI359
g3623
sI360
g3224
sI361
g3008
sI362
g2884
sI363
g3456
sI364
g3468
sI365
g3104
sI366
g3011
sI367
g3259
sI368
g2964
sI369
g3534
sI370
g3043
sI371
g3235
sI372
g2997
sI373
g2950
sI374
g3649
sI375
g3594
sI376
g3641
sI377
g3171
sI378
g3116
sI379
g3409
sI380
g2889
sI381
g3550
sI382
g3147
sI383
g3073
sI384
g3240
sI385
g3339
sI386
g3638
sI387
g3248
sI388
g3601
sI389
g3450
sI390
g3704
sI391
g3280
sI392
g2855
sI393
g3096
sI394
g3451
sI395
g3379
sI396
g3579
sI397
g3551
sI398
g3273
sI399
g3004
sI400
g3002
sI401
g3338
sI402
g2882
sI403
g3210
sI404
g3771
sI405
g3592
sI406
g3496
sI407
g3712
sI408
g3554
sI409
g2863
sI410
g3056
sI411
g3344
sI412
g3518
sI413
g3358
sI414
g3656
sI415
g3556
sI416
g3023
sI417
g3515
sI418
g3561
sI419
g3722
sI420
g3661
sI421
g3365
sI422
g3308
sI423
g2874
sI424
g3535
sI425
g3099
sI426
g3700
sI427
g3080
sI428
g3279
sI429
g3475
sI430
g3105
sI431
g3085
sI432
g3389
sI433
g3418
sI434
g2891
sI435
g3252
sI436
g3540
sI437
g3078
sI438
g3449
sI439
g3606
sI440
g3196
sI441
g3114
sI442
g3507
sI443
g3053
sI444
g3681
sI445
g3702
sI446
g3640
sI447
g3353
sI448
g3133
sI449
g3304
sI450
g3267
sI451
g3604
sI452
g3231
sI453
g2878
sI454
g2888
sI455
g3558
sI456
g3072
sI457
g3341
sI458
g3167
sI459
g3559
sI460
g2930
sI461
g3065
sI462
g3435
sI463
g3129
sI464
g3168
sI465
g3245
sI466
g3478
sI467
g3533
sI468
g3423
sI469
g3331
sI470
g2877
sI471
g3244
sI472
g2976
sI473
g3017
sI474
g3199
sI475
g3218
sI476
g3113
sI477
g3126
sI478
g3039
sI479
g3634
sI480
g3290
sI481
g2895
sI482
g3274
sI483
g3626
sI484
g2928
sI485
g3415
sI486
g2965
sI487
g3508
sI488
g3103
sI489
g3348
sI490
g3158
sI491
g3089
sI492
g3595
sI493
g3286
sI494
g3764
sI495
g3295
sI496
g3689
sI497
g3315
sI498
g2961
sI499
g3462
sI500
g2893
sI501
g3621
sI502
g3381
sI503
g2952
sI504
g3009
sI505
g3010
sI506
g3660
sI507
g3183
sI508
g3600
sI509
g2993
sI510
g3407
sI511
g2972
sI512
g3717
sI513
g3305
sI514
g2913
sI515
g3457
sI516
g2868
sI517
g3756
sI518
g3106
sI519
g3731
sI520
g3505
sI521
g3001
sI522
g3528
sI523
g3269
sI524
g2994
sI525
g3249
sI526
g3203
sI527
g2978
sI528
g3390
sI529
g3258
sI530
g3192
sI531
g3654
sI532
g3584
sI533
g3332
sI534
g3135
sI535
g3414
sI536
g3632
sI537
g3121
sI538
g3107
sI539
g2945
sI540
g3337
sI541
g3076
sI542
g3575
sI543
g3436
sI544
g3719
sI545
g3178
sI546
g3246
sI547
g3720
sI548
g2944
sI549
g3034
sI550
g3142
sI551
g2988
sI552
g2918
sI553
g3022
sI554
g3125
sI555
g3769
sI556
g3354
sI557
g3446
sI558
g3276
sI559
g3292
sI560
g3170
sI561
g3627
sI562
g3581
sI563
g3108
sI564
g2854
sI565
g3166
sI566
g3622
sI567
g3577
sI568
g3214
sI569
g3067
sI570
g3439
sI571
g3327
sI572
g3079
sI573
g3472
sI574
g3607
sI575
g3663
sI576
g3564
sI577
g3226
sI578
g3543
sI579
g2946
sI580
g3122
sI581
g3755
sI582
g3726
sI583
g3278
sI584
g3458
sI585
g3464
sI586
g3211
sI587
g3087
sI588
g2947
sI589
g3442
sI590
g3013
sI591
g3380
sI592
g3215
sI593
g3232
sI594
g3582
sI595
g3624
sI596
g3523
sI597
g3391
sI598
g3161
sI599
g3190
sI600
g3146
sI601
g3047
sI602
g3542
sI603
g3512
sI604
g3225
sI605
g3721
sI606
g3055
sI607
g3774
sI608
g2975
sI609
g3128
sI610
g3038
sI611
g3736
sI612
g3018
sI613
g3675
sI614
g2992
sI615
g3591
sI616
g3394
sI617
g2986
sI618
g3293
sI619
g3343
sI620
g3266
sI621
g3118
sI622
g3283
sI623
g3670
sI624
g3701
sI625
g3342
sI626
g3157
sI627
g3151
sI628
g3298
sI629
g3732
sI630
g3476
sI631
g3352
sI632
g3493
sI633
g3617
sI634
g3665
sI635
g3159
sI636
g3275
sI637
g3537
sI638
g3602
sI639
g3547
sI640
g3325
sI641
g3437
sI642
g3568
sI643
g3467
sI644
g3392
sI645
g2909
sI646
g3186
sI647
g3416
sI648
g3625
sI649
g3174
sI650
g3316
sI651
g3097
sI652
g2974
sI653
g3306
sI654
g3319
sI655
g3688
sI656
g2927
sI657
g3620
sI658
g3063
sI659
g3511
sI660
g3355
sI661
g3683
sI662
g3164
sI663
g3207
sI664
g3729
sI665
g3539
sI666
g3202
sI667
g3195
sI668
g3455
sI669
g3417
sI670
g3143
sI671
g3758
sI672
g3524
sI673
g3448
sI674
g3398
sI675
g2853
sI676
g3270
sI677
g2903
sI678
g3182
sI679
g3074
sI680
g2902
sI681
g3377
sI682
g3317
sI683
g3238
sI684
g2959
sI685
g3431
sI686
g3397
sI687
g3613
sI688
g3261
sI689
g3488
sI690
g3743
sI691
g3333
sI692
g3160
sI693
g2929
sI694
g3081
sI695
g3749
sI696
g3115
sI697
g3776
sI698
g3383
sI699
g3603
sI700
g3030
sI701
g3040
sI702
g3699
sI703
g3257
sI704
g3694
sI705
g3608
sI706
g2980
sI707
g2862
sI708
g3444
sI709
g3500
sI710
g3583
sI711
g2951
sI712
g2971
sI713
g3775
sI714
g3519
sI715
g2917
sI716
g3175
sI717
g3752
sI718
g2979
sI719
g3560
sI720
g3163
sI721
g3569
sI722
g3636
sI723
g3287
sI724
g3291
sI725
g3206
sI726
g3086
sI727
g3514
sI728
g2943
sI729
g3084
sI730
g3489
sI731
g3571
sI732
g2967
sI733
g2890
sI734
g3740
sI735
g3364
sI736
g3734
sI737
g3710
sI738
g2907
sI739
g3025
sI740
g3705
sI741
g3132
sI742
g3682
sI743
g3611
sI744
g3102
sI745
g3016
sI746
g3485
sI747
g3522
sI748
g3430
sI749
g2963
sI750
g3408
sI751
g3767
sI752
g3268
sI753
g3334
sI754
g3487
sI755
g3598
sI756
g3410
sI757
g2953
sI758
g2864
sI759
g2915
sI760
g3686
sI761
g3708
sI762
g3504
sI763
g3251
sI764
g3773
sI765
g3741
sI766
g3006
sI767
g3570
sI768
g3162
sI769
g3703
sI770
g2870
sI771
g2901
sI772
g3541
sI773
g3372
sI774
g3323
sI775
g3294
sI776
g3706
sI777
g2880
sI778
g2914
sI779
g2954
sI780
g3150
sI781
g2900
sI782
g3388
sI783
g3272
sI784
g3213
sI785
g3459
sI786
g3374
sI787
g3376
sI788
g3619
sI789
g3404
sI790
g3402
sI791
g3586
sI792
g3713
sI793
g3727
sI794
g3503
sI795
g3469
sI796
g3262
sI797
g3506
sI798
g3062
sI799
g2938
sI800
g3181
sI801
g3644
sI802
g3387
sI803
g3393
sI804
g3322
sI805
g3077
sI806
g3222
sI807
g3367
sI808
g3066
sI809
g3260
sI810
g3045
sI811
g2940
sI812
g3386
sI813
g2908
sI814
g2991
sI815
g3201
sI816
g3237
sI817
g2894
sI818
g2998
sI819
g3220
sI820
g3405
sI821
g3545
sI822
g3588
sI823
g3036
sI824
g3243
sI825
g2948
sI826
g2919
sI827
g3366
sI828
g3768
sI829
g2962
sI830
g3124
sI831
g2990
sI832
g3597
sI833
g3247
sI834
g3311
sI835
g3530
sI836
g3609
sI837
g3396
sI838
g3000
sI839
g2881
sI840
g3521
sI841
g3300
sI842
g3088
sI843
g3531
sI844
g3526
sI845
g3370
sI846
g3662
sI847
g3184
sI848
g3728
sI849
g3685
sI850
g3185
sI851
g3753
sI852
g2925
sI853
g3094
sI854
g3673
sI855
g3083
sI856
g3361
sI857
g3658
sI858
g3585
sI859
g3024
sI860
g3349
sI861
g2987
sI862
g3284
sI863
g2981
sI864
g3234
sI865
g3371
sI866
g3544
sI867
g3565
sI868
g2860
sI869
g3346
sI870
g3546
sI871
g3007
sI872
g3230
sI873
g3578
sI874
g3227
sI875
g3250
sI876
g3093
sI877
g3765
sI878
g3421
sI879
g3477
sI880
g3373
sI881
g3032
sI882
g3630
sI883
g3567
sI884
g3746
sI885
g3671
sI886
g3668
sI887
g2899
sI888
g3054
sI889
g3427
sI890
g2941
sI891
g3148
sI892
g3447
sI893
g3536
sI894
g3576
sI895
g3041
sI896
g3177
sI897
g3420
sI898
g2985
sI899
g3356
sI900
g3193
sI901
g3510
sI902
g2873
sI903
g3587
sI904
g3014
sI905
g3484
sI906
g3428
sI907
g3301
sI908
g3605
sI909
g3071
sI910
g2885
sI911
g3650
sI912
g3445
sI913
g3336
sI914
g3050
sI915
g2931
sI916
g3678
sI917
g3092
sI918
g3173
sI919
g2939
sI920
g2995
sI921
g3687
sI922
g3745
sI923
g3403
sI924
g3188
stp3778
.